(dp0
S'METTS MARK'
p1
(dp2
S'salary'
p3
I365788
sS'to_messages'
p4
I807
sS'deferral_payments'
p5
S'NaN'
p6
sS'total_payments'
p7
I1061827
sS'exercised_stock_options'
p8
g6
sS'bonus'
p9
I600000
sS'restricted_stock'
p10
I585062
sS'shared_receipt_with_poi'
p11
I702
sS'restricted_stock_deferred'
p12
g6
sS'total_stock_value'
p13
I585062
sS'expenses'
p14
I94299
sS'loan_advances'
p15
g6
sS'from_messages'
p16
I29
sS'other'
p17
I1740
sS'from_this_person_to_poi'
p18
I1
sS'poi'
p19
I00
sS'director_fees'
p20
g6
sS'deferred_income'
p21
g6
sS'long_term_incentive'
p22
g6
sS'email_address'
p23
S'mark.metts@enron.com'
p24
sS'from_poi_to_this_person'
p25
I38
ssS'BAXTER JOHN C'
p26
(dp27
g3
I267102
sg4
g6
sg5
I1295738
sg7
I5634343
sg8
I6680544
sg9
I1200000
sg10
I3942714
sg11
g6
sg12
g6
sg13
I10623258
sg14
I11200
sg15
g6
sg16
g6
sg17
I2660303
sg18
g6
sg19
I00
sg20
g6
sg21
I-1386055
sg22
I1586055
sg23
g6
sg25
g6
ssS'ELLIOTT STEVEN'
p28
(dp29
g3
I170941
sg4
g6
sg5
g6
sg7
I211725
sg8
I4890344
sg9
I350000
sg10
I1788391
sg11
g6
sg12
g6
sg13
I6678735
sg14
I78552
sg15
g6
sg16
g6
sg17
I12961
sg18
g6
sg19
I00
sg20
g6
sg21
I-400729
sg22
g6
sg23
S'steven.elliott@enron.com'
p30
sg25
g6
ssS'CORDES WILLIAM R'
p31
(dp32
g3
g6
sg4
I764
sg5
g6
sg7
g6
sg8
I651850
sg9
g6
sg10
I386335
sg11
I58
sg12
g6
sg13
I1038185
sg14
g6
sg15
g6
sg16
I12
sg17
g6
sg18
I0
sg19
I00
sg20
g6
sg21
g6
sg22
g6
sg23
S'bill.cordes@enron.com'
p33
sg25
I10
ssS'HANNON KEVIN P'
p34
(dp35
g3
I243293
sg4
I1045
sg5
g6
sg7
I288682
sg8
I5538001
sg9
I1500000
sg10
I853064
sg11
I1035
sg12
g6
sg13
I6391065
sg14
I34039
sg15
g6
sg16
I32
sg17
I11350
sg18
I21
sg19
I01
sg20
g6
sg21
I-3117011
sg22
I1617011
sg23
S'kevin.hannon@enron.com'
p36
sg25
I32
ssS'MORDAUNT KRISTINA M'
p37
(dp38
g3
I267093
sg4
g6
sg5
g6
sg7
I628522
sg8
g6
sg9
I325000
sg10
I208510
sg11
g6
sg12
g6
sg13
I208510
sg14
I35018
sg15
g6
sg16
g6
sg17
I1411
sg18
g6
sg19
I00
sg20
g6
sg21
g6
sg22
g6
sg23
S'kristina.mordaunt@enron.com'
p39
sg25
g6
ssS'MEYER ROCKFORD G'
p40
(dp41
g3
g6
sg4
I232
sg5
I1848227
sg7
I1848227
sg8
I493489
sg9
g6
sg10
I462384
sg11
I22
sg12
g6
sg13
I955873
sg14
g6
sg15
g6
sg16
I28
sg17
g6
sg18
I0
sg19
I00
sg20
g6
sg21
g6
sg22
g6
sg23
S'rockford.meyer@enron.com'
p42
sg25
I0
ssS'MCMAHON JEFFREY'
p43
(dp44
g3
I370448
sg4
I2355
sg5
g6
sg7
I4099771
sg8
I1104054
sg9
I2600000
sg10
I558801
sg11
I2228
sg12
g6
sg13
I1662855
sg14
I137108
sg15
g6
sg16
I48
sg17
I297353
sg18
I26
sg19
I00
sg20
g6
sg21
g6
sg22
I694862
sg23
S'jeffrey.mcmahon@enron.com'
p45
sg25
I58
ssS'HAEDICKE MARK E'
p46
(dp47
g3
I374125
sg4
I4009
sg5
I2157527
sg7
I3859065
sg8
I608750
sg9
I1150000
sg10
I524169
sg11
I1847
sg12
I-329825
sg13
I803094
sg14
I76169
sg15
g6
sg16
I1941
sg17
I52382
sg18
I61
sg19
I00
sg20
g6
sg21
I-934484
sg22
I983346
sg23
S'mark.haedicke@enron.com'
p48
sg25
I180
ssS'PIPER GREGORY F'
p49
(dp50
g3
I197091
sg4
I1238
sg5
I1130036
sg7
I1737629
sg8
I880290
sg9
I400000
sg10
I409554
sg11
I742
sg12
I-409554
sg13
I880290
sg14
I43057
sg15
g6
sg16
I222
sg17
I778
sg18
I48
sg19
I00
sg20
g6
sg21
I-33333
sg22
g6
sg23
S'greg.piper@enron.com'
p51
sg25
I61
ssS'HUMPHREY GENE E'
p52
(dp53
g3
I130724
sg4
I128
sg5
I2964506
sg7
I3100224
sg8
I2282768
sg9
g6
sg10
g6
sg11
I119
sg12
g6
sg13
I2282768
sg14
I4994
sg15
g6
sg16
I17
sg17
g6
sg18
I17
sg19
I00
sg20
g6
sg21
g6
sg22
g6
sg23
S'gene.humphrey@enron.com'
p54
sg25
I10
ssS'NOLES JAMES L'
p55
(dp56
g3
g6
sg4
g6
sg5
I774401
sg7
I774401
sg8
g6
sg9
g6
sg10
I463261
sg11
g6
sg12
I-94556
sg13
I368705
sg14
g6
sg15
g6
sg16
g6
sg17
g6
sg18
g6
sg19
I00
sg20
g6
sg21
g6
sg22
g6
sg23
g6
sg25
g6
ssS'BLACHMAN JEREMY M'
p57
(dp58
g3
I248546
sg4
I2475
sg5
g6
sg7
I2014835
sg8
I765313
sg9
I850000
sg10
I189041
sg11
I2326
sg12
g6
sg13
I954354
sg14
I84208
sg15
g6
sg16
I14
sg17
I272
sg18
I2
sg19
I00
sg20
g6
sg21
g6
sg22
I831809
sg23
S'jeremy.blachman@enron.com'
p59
sg25
I25
ssS'SUNDE MARTIN'
p60
(dp61
g3
I257486
sg4
I2647
sg5
g6
sg7
I1545059
sg8
g6
sg9
I700000
sg10
I698920
sg11
I2565
sg12
g6
sg13
I698920
sg14
g6
sg15
g6
sg16
I38
sg17
I111122
sg18
I13
sg19
I00
sg20
g6
sg21
g6
sg22
I476451
sg23
S'marty.sunde@enron.com'
p62
sg25
I37
ssS'GIBBS DANA R'
p63
(dp64
g3
g6
sg4
I169
sg5
I504610
sg7
I966522
sg8
I2218275
sg9
g6
sg10
g6
sg11
I23
sg12
g6
sg13
I2218275
sg14
g6
sg15
g6
sg16
I12
sg17
g6
sg18
I0
sg19
I00
sg20
g6
sg21
g6
sg22
I461912
sg23
S'dana.gibbs@enron.com'
p65
sg25
I0
ssS'LOWRY CHARLES P'
p66
(dp67
g3
g6
sg4
g6
sg5
g6
sg7
g6
sg8
I372205
sg9
g6
sg10
I153686
sg11
g6
sg12
I-153686
sg13
I372205
sg14
g6
sg15
g6
sg16
g6
sg17
g6
sg18
g6
sg19
I00
sg20
g6
sg21
g6
sg22
g6
sg23
g6
sg25
g6
ssS'COLWELL WESLEY'
p68
(dp69
g3
I288542
sg4
I1758
sg5
I27610
sg7
I1490344
sg8
g6
sg9
I1200000
sg10
I698242
sg11
I1132
sg12
g6
sg13
I698242
sg14
I16514
sg15
g6
sg16
I40
sg17
I101740
sg18
I11
sg19
I01
sg20
g6
sg21
I-144062
sg22
g6
sg23
S'wes.colwell@enron.com'
p70
sg25
I240
ssS'MULLER MARK S'
p71
(dp72
g3
I251654
sg4
I136
sg5
I842924
sg7
I3202070
sg8
I1056320
sg9
I1100000
sg10
I360528
sg11
I114
sg12
g6
sg13
I1416848
sg14
g6
sg15
g6
sg16
I16
sg17
I947
sg18
I0
sg19
I00
sg20
g6
sg21
I-719000
sg22
I1725545
sg23
S's..muller@enron.com'
p73
sg25
I12
ssS'JACKSON CHARLENE R'
p74
(dp75
g3
I288558
sg4
I258
sg5
g6
sg7
I551174
sg8
I185063
sg9
I250000
sg10
I540672
sg11
I117
sg12
g6
sg13
I725735
sg14
I10181
sg15
g6
sg16
I56
sg17
I2435
sg18
I19
sg19
I00
sg20
g6
sg21
g6
sg22
g6
sg23
S'charlene.jackson@enron.com'
p76
sg25
I25
ssS'WESTFAHL RICHARD K'
p77
(dp78
g3
I63744
sg4
g6
sg5
g6
sg7
I762135
sg8
g6
sg9
g6
sg10
I384930
sg11
g6
sg12
g6
sg13
I384930
sg14
I51870
sg15
g6
sg16
g6
sg17
I401130
sg18
g6
sg19
I00
sg20
g6
sg21
I-10800
sg22
I256191
sg23
S'dick.westfahl@enron.com'
p79
sg25
g6
ssS'WALTERS GARETH W'
p80
(dp81
g3
g6
sg4
g6
sg5
I53625
sg7
I87410
sg8
I1030329
sg9
g6
sg10
g6
sg11
g6
sg12
g6
sg13
I1030329
sg14
I33785
sg15
g6
sg16
g6
sg17
g6
sg18
g6
sg19
I00
sg20
g6
sg21
g6
sg22
g6
sg23
g6
sg25
g6
ssS'WALLS JR ROBERT H'
p82
(dp83
g3
I357091
sg4
I671
sg5
g6
sg7
I1798780
sg8
I4346544
sg9
I850000
sg10
I1552453
sg11
I215
sg12
g6
sg13
I5898997
sg14
I50936
sg15
g6
sg16
I146
sg17
I2
sg18
I0
sg19
I00
sg20
g6
sg21
g6
sg22
I540751
sg23
S'rob.walls@enron.com'
p84
sg25
I17
ssS'KITCHEN LOUISE'
p85
(dp86
g3
I271442
sg4
I8305
sg5
g6
sg7
I3471141
sg8
I81042
sg9
I3100000
sg10
I466101
sg11
I3669
sg12
g6
sg13
I547143
sg14
I5774
sg15
g6
sg16
I1728
sg17
I93925
sg18
I194
sg19
I00
sg20
g6
sg21
g6
sg22
g6
sg23
S'louise.kitchen@enron.com'
p87
sg25
I251
ssS'CHAN RONNIE'
p88
(dp89
g3
g6
sg4
g6
sg5
g6
sg7
g6
sg8
g6
sg9
g6
sg10
I32460
sg11
g6
sg12
I-32460
sg13
g6
sg14
g6
sg15
g6
sg16
g6
sg17
g6
sg18
g6
sg19
I00
sg20
I98784
sg21
I-98784
sg22
g6
sg23
g6
sg25
g6
ssS'BELFER ROBERT'
p90
(dp91
g3
g6
sg4
g6
sg5
S'NaN'
p92
sg7
I3285
sg8
g92
sg9
g6
sg10
I44093
sg11
g6
sg12
I-44093
sg13
g92
sg14
I3285
sg15
g6
sg16
g6
sg17
g6
sg18
g6
sg19
I00
sg20
I102500
sg21
I-102500
sg22
g6
sg23
g6
sg25
g6
ssS'SHANKMAN JEFFREY A'
p93
(dp94
g3
I304110
sg4
I3221
sg5
g6
sg7
I3038702
sg8
I1441898
sg9
I2000000
sg10
I630137
sg11
I1730
sg12
g6
sg13
I2072035
sg14
I178979
sg15
g6
sg16
I2681
sg17
I1191
sg18
I83
sg19
I00
sg20
g6
sg21
g6
sg22
I554422
sg23
S'jeffrey.shankman@enron.com'
p95
sg25
I94
ssS'WODRASKA JOHN'
p96
(dp97
g3
g6
sg4
g6
sg5
g6
sg7
I189583
sg8
g6
sg9
g6
sg10
g6
sg11
g6
sg12
g6
sg13
g6
sg14
g6
sg15
g6
sg16
g6
sg17
I189583
sg18
g6
sg19
I00
sg20
g6
sg21
g6
sg22
g6
sg23
S'john.wodraska@enron.com'
p98
sg25
g6
ssS'BERGSIEKER RICHARD P'
p99
(dp100
g3
I187922
sg4
I383
sg5
g6
sg7
I618850
sg8
g6
sg9
I250000
sg10
I659249
sg11
I233
sg12
g6
sg13
I659249
sg14
I59175
sg15
g6
sg16
I59
sg17
I427316
sg18
I0
sg19
I00
sg20
g6
sg21
I-485813
sg22
I180250
sg23
S'rick.bergsieker@enron.com'
p101
sg25
I4
ssS'URQUHART JOHN A'
p102
(dp103
g3
g6
sg4
g6
sg5
g6
sg7
I228656
sg8
g6
sg9
g6
sg10
g6
sg11
g6
sg12
g6
sg13
g6
sg14
I228656
sg15
g6
sg16
g6
sg17
g6
sg18
g6
sg19
I00
sg20
I36666
sg21
I-36666
sg22
g6
sg23
g6
sg25
g6
ssS'BIBI PHILIPPE A'
p104
(dp105
g3
I213625
sg4
I1607
sg5
g6
sg7
I2047593
sg8
I1465734
sg9
I1000000
sg10
I378082
sg11
I1336
sg12
g6
sg13
I1843816
sg14
I38559
sg15
g6
sg16
I40
sg17
I425688
sg18
I8
sg19
I00
sg20
g6
sg21
g6
sg22
I369721
sg23
S'philippe.bibi@enron.com'
p106
sg25
I23
ssS'RIEKER PAULA H'
p107
(dp108
g3
I249201
sg4
I1328
sg5
I214678
sg7
I1099100
sg8
I1635238
sg9
I700000
sg10
I283649
sg11
I1258
sg12
g6
sg13
I1918887
sg14
I33271
sg15
g6
sg16
I82
sg17
I1950
sg18
I48
sg19
I01
sg20
g6
sg21
I-100000
sg22
g6
sg23
S'paula.rieker@enron.com'
p109
sg25
I35
ssS'WHALEY DAVID A'
p110
(dp111
g3
g6
sg4
g6
sg5
g6
sg7
g6
sg8
I98718
sg9
g6
sg10
g6
sg11
g6
sg12
g6
sg13
I98718
sg14
g6
sg15
g6
sg16
g6
sg17
g6
sg18
g6
sg19
I00
sg20
g6
sg21
g6
sg22
g6
sg23
g6
sg25
g6
ssS'BECK SALLY W'
p112
(dp113
g3
I231330
sg4
I7315
sg5
g6
sg7
I969068
sg8
g6
sg9
I700000
sg10
I126027
sg11
I2639
sg12
g6
sg13
I126027
sg14
I37172
sg15
g6
sg16
I4343
sg17
I566
sg18
I386
sg19
I00
sg20
g6
sg21
g6
sg22
g6
sg23
S'sally.beck@enron.com'
p114
sg25
I144
ssS'HAUG DAVID L'
p115
(dp116
g3
g6
sg4
I573
sg5
g6
sg7
I475
sg8
g6
sg9
g6
sg10
I2217299
sg11
I471
sg12
g6
sg13
I2217299
sg14
I475
sg15
g6
sg16
I19
sg17
g6
sg18
I7
sg19
I00
sg20
g6
sg21
g6
sg22
g6
sg23
S'david.haug@enron.com'
p117
sg25
I4
ssS'ECHOLS JOHN B'
p118
(dp119
g3
I182245
sg4
g6
sg5
g6
sg7
I2692324
sg8
I601438
sg9
I200000
sg10
I407503
sg11
g6
sg12
g6
sg13
I1008941
sg14
I21530
sg15
g6
sg16
g6
sg17
I53775
sg18
g6
sg19
I00
sg20
g6
sg21
g6
sg22
I2234774
sg23
S'john.echols@enron.com'
p120
sg25
g6
ssS'MENDELSOHN JOHN'
p121
(dp122
g3
g6
sg4
g6
sg5
g6
sg7
I148
sg8
g6
sg9
g6
sg10
g6
sg11
g6
sg12
g6
sg13
g6
sg14
I148
sg15
g6
sg16
g6
sg17
g6
sg18
g6
sg19
I00
sg20
I103750
sg21
I-103750
sg22
g6
sg23
g6
sg25
g6
ssS'HICKERSON GARY J'
p123
(dp124
g3
I211788
sg4
I1320
sg5
g6
sg7
I2081796
sg8
g6
sg9
I1700000
sg10
I441096
sg11
I900
sg12
g6
sg13
I441096
sg14
I98849
sg15
g6
sg16
I27
sg17
I1936
sg18
I1
sg19
I00
sg20
g6
sg21
g6
sg22
I69223
sg23
S'gary.hickerson@enron.com'
p125
sg25
I40
ssS'CLINE KENNETH W'
p126
(dp127
g3
g6
sg4
g6
sg5
g6
sg7
g6
sg8
g6
sg9
g6
sg10
I662086
sg11
g6
sg12
I-472568
sg13
I189518
sg14
g6
sg15
g6
sg16
g6
sg17
g6
sg18
g6
sg19
I00
sg20
g6
sg21
g6
sg22
g6
sg23
g6
sg25
g6
ssS'LEWIS RICHARD'
p128
(dp129
g3
g6
sg4
I952
sg5
g6
sg7
g6
sg8
I850477
sg9
g6
sg10
g6
sg11
I739
sg12
g6
sg13
I850477
sg14
g6
sg15
g6
sg16
I26
sg17
g6
sg18
I0
sg19
I00
sg20
g6
sg21
g6
sg22
g6
sg23
S'richard.lewis@enron.com'
p130
sg25
I10
ssS'HAYES ROBERT E'
p131
(dp132
g3
g6
sg4
I504
sg5
I7961
sg7
I7961
sg8
g6
sg9
g6
sg10
I151418
sg11
I50
sg12
g6
sg13
I151418
sg14
g6
sg15
g6
sg16
I12
sg17
g6
sg18
I0
sg19
I00
sg20
g6
sg21
g6
sg22
g6
sg23
S'robert.hayes@enron.com'
p133
sg25
I16
ssS'KOPPER MICHAEL J'
p134
(dp135
g3
I224305
sg4
g6
sg5
g6
sg7
I2652612
sg8
g6
sg9
I800000
sg10
I985032
sg11
g6
sg12
g6
sg13
I985032
sg14
I118134
sg15
g6
sg16
g6
sg17
I907502
sg18
g6
sg19
I01
sg20
g6
sg21
g6
sg22
I602671
sg23
S'michael.kopper@enron.com'
p136
sg25
g6
ssS'LEFF DANIEL P'
p137
(dp138
g3
I273746
sg4
I2822
sg5
g6
sg7
I2664228
sg8
g6
sg9
I1000000
sg10
I360528
sg11
I2672
sg12
g6
sg13
I360528
sg14
g6
sg15
g6
sg16
I63
sg17
I3083
sg18
I14
sg19
I00
sg20
g6
sg21
g6
sg22
I1387399
sg23
S'dan.leff@enron.com'
p139
sg25
I67
ssS'LAVORATO JOHN J'
p140
(dp141
g3
I339288
sg4
I7259
sg5
g6
sg7
I10425757
sg8
I4158995
sg9
I8000000
sg10
I1008149
sg11
I3962
sg12
g6
sg13
I5167144
sg14
I49537
sg15
g6
sg16
I2585
sg17
I1552
sg18
I411
sg19
I00
sg20
g6
sg21
g6
sg22
I2035380
sg23
S'john.lavorato@enron.com'
p142
sg25
I528
ssS'BERBERIAN DAVID'
p143
(dp144
g3
I216582
sg4
g6
sg5
g6
sg7
I228474
sg8
I1624396
sg9
g6
sg10
I869220
sg11
g6
sg12
g6
sg13
I2493616
sg14
I11892
sg15
g6
sg16
g6
sg17
g6
sg18
g6
sg19
I00
sg20
g6
sg21
g6
sg22
g6
sg23
S'david.berberian@enron.com'
p145
sg25
g6
ssS'DETMERING TIMOTHY J'
p146
(dp147
g3
I210500
sg4
g6
sg5
I875307
sg7
I1204583
sg8
I2027865
sg9
I425000
sg10
I315068
sg11
g6
sg12
I-315068
sg13
I2027865
sg14
I52255
sg15
g6
sg16
g6
sg17
I1105
sg18
g6
sg19
I00
sg20
g6
sg21
I-775241
sg22
I415657
sg23
S'timothy.detmering@enron.com'
p148
sg25
g6
ssS'WAKEHAM JOHN'
p149
(dp150
g3
g6
sg4
g6
sg5
g6
sg7
I213071
sg8
g6
sg9
g6
sg10
g6
sg11
g6
sg12
g6
sg13
g6
sg14
I103773
sg15
g6
sg16
g6
sg17
g6
sg18
g6
sg19
I00
sg20
I109298
sg21
g6
sg22
g6
sg23
g6
sg25
g6
ssS'POWERS WILLIAM'
p151
(dp152
g3
g6
sg4
I653
sg5
g6
sg7
g6
sg8
g6
sg9
g6
sg10
g6
sg11
I12
sg12
g6
sg13
g6
sg14
g6
sg15
g6
sg16
I26
sg17
g6
sg18
I0
sg19
I00
sg20
I17500
sg21
I-17500
sg22
g6
sg23
S'ken.powers@enron.com'
p153
sg25
I0
ssS'GOLD JOSEPH'
p154
(dp155
g3
I272880
sg4
g6
sg5
g6
sg7
I2146973
sg8
I436515
sg9
I750000
sg10
I441096
sg11
g6
sg12
g6
sg13
I877611
sg14
g6
sg15
g6
sg16
g6
sg17
I819288
sg18
g6
sg19
I00
sg20
g6
sg21
g6
sg22
I304805
sg23
S'joe.gold@enron.com'
p156
sg25
g6
ssS'BANNANTINE JAMES M'
p157
(dp158
g3
I477
sg4
I566
sg5
g6
sg7
I916197
sg8
I4046157
sg9
g6
sg10
I1757552
sg11
I465
sg12
I-560222
sg13
I5243487
sg14
I56301
sg15
g6
sg16
I29
sg17
I864523
sg18
I0
sg19
I00
sg20
g6
sg21
I-5104
sg22
g6
sg23
S'james.bannantine@enron.com'
p159
sg25
I39
ssS'DUNCAN JOHN H'
p160
(dp161
g3
g6
sg4
g6
sg5
g6
sg7
I77492
sg8
I371750
sg9
g6
sg10
g6
sg11
g6
sg12
g6
sg13
I371750
sg14
g6
sg15
g6
sg16
g6
sg17
g6
sg18
g6
sg19
I00
sg20
I102492
sg21
I-25000
sg22
g6
sg23
g6
sg25
g6
ssS'SHAPIRO RICHARD S'
p162
(dp163
g3
I269076
sg4
I15149
sg5
g6
sg7
I1057548
sg8
I607837
sg9
I650000
sg10
I379164
sg11
I4527
sg12
g6
sg13
I987001
sg14
I137767
sg15
g6
sg16
I1215
sg17
I705
sg18
I65
sg19
I00
sg20
g6
sg21
g6
sg22
g6
sg23
S'richard.shapiro@enron.com'
p164
sg25
I74
ssS'SHERRIFF JOHN R'
p165
(dp166
g3
I428780
sg4
I3187
sg5
g6
sg7
I4335388
sg8
I1835558
sg9
I1500000
sg10
I1293424
sg11
I2103
sg12
g6
sg13
I3128982
sg14
g6
sg15
g6
sg16
I92
sg17
I1852186
sg18
I23
sg19
I00
sg20
g6
sg21
g6
sg22
I554422
sg23
S'john.sherriff@enron.com'
p167
sg25
I28
ssS'SHELBY REX'
p168
(dp169
g3
I211844
sg4
I225
sg5
g6
sg7
I2003885
sg8
I1624396
sg9
I200000
sg10
I869220
sg11
I91
sg12
g6
sg13
I2493616
sg14
I22884
sg15
g6
sg16
I39
sg17
I1573324
sg18
I14
sg19
I01
sg20
g6
sg21
I-4167
sg22
g6
sg23
S'rex.shelby@enron.com'
p170
sg25
I13
ssS'LEMAISTRE CHARLES'
p171
(dp172
g3
g6
sg4
g6
sg5
g6
sg7
I87492
sg8
I412878
sg9
g6
sg10
g6
sg11
g6
sg12
g6
sg13
I412878
sg14
g6
sg15
g6
sg16
g6
sg17
g6
sg18
g6
sg19
I00
sg20
I112492
sg21
I-25000
sg22
g6
sg23
g6
sg25
g6
ssS'DEFFNER JOSEPH M'
p173
(dp174
g3
I206121
sg4
I714
sg5
g6
sg7
I1208649
sg8
I17378
sg9
I600000
sg10
I141833
sg11
I552
sg12
g6
sg13
I159211
sg14
I41626
sg15
g6
sg16
I74
sg17
I25553
sg18
I4
sg19
I00
sg20
g6
sg21
g6
sg22
I335349
sg23
S'joseph.deffner@enron.com'
p175
sg25
I115
ssS'KISHKILL JOSEPH G'
p176
(dp177
g3
I174246
sg4
g6
sg5
g6
sg7
I704896
sg8
g6
sg9
g6
sg10
I1034346
sg11
g6
sg12
g6
sg13
I1034346
sg14
I116335
sg15
g6
sg16
g6
sg17
I465357
sg18
g6
sg19
I00
sg20
g6
sg21
I-51042
sg22
g6
sg23
S'joe.kishkill@enron.com'
p178
sg25
g6
ssS'WHALLEY LAWRENCE G'
p179
(dp180
g3
I510364
sg4
I6019
sg5
g6
sg7
I4677574
sg8
I3282960
sg9
I3000000
sg10
I2796177
sg11
I3920
sg12
g6
sg13
I6079137
sg14
I57838
sg15
g6
sg16
I556
sg17
I301026
sg18
I24
sg19
I00
sg20
g6
sg21
g6
sg22
I808346
sg23
S'greg.whalley@enron.com'
p181
sg25
I186
ssS'PIRO JIM'
p182
(dp183
g3
g6
sg4
I58
sg5
g6
sg7
g6
sg8
g6
sg9
g6
sg10
I47304
sg11
I3
sg12
g6
sg13
I47304
sg14
g6
sg15
g6
sg16
I16
sg17
g6
sg18
I1
sg19
I00
sg20
g6
sg21
g6
sg22
g6
sg23
S'jim.piro@enron.com'
p184
sg25
I0
ssS'MCCONNELL MICHAEL S'
p185
(dp186
g3
I365038
sg4
I3329
sg5
g6
sg7
I2101364
sg8
I1623010
sg9
I1100000
sg10
I1478269
sg11
I2189
sg12
g6
sg13
I3101279
sg14
I81364
sg15
g6
sg16
I2742
sg17
I540
sg18
I194
sg19
I00
sg20
g6
sg21
g6
sg22
I554422
sg23
S'mike.mcconnell@enron.com'
p187
sg25
I92
ssS'DELAINEY DAVID W'
p188
(dp189
g3
I365163
sg4
I3093
sg5
g6
sg7
I4747979
sg8
I2291113
sg9
I3000000
sg10
I1323148
sg11
I2097
sg12
g6
sg13
I3614261
sg14
I86174
sg15
g6
sg16
I3069
sg17
I1661
sg18
I609
sg19
I01
sg20
g6
sg21
g6
sg22
I1294981
sg23
S'david.delainey@enron.com'
p190
sg25
I66
ssS'SULLIVAN-SHAKLOVITZ COLLEEN'
p191
(dp192
g3
I162779
sg4
g6
sg5
I181993
sg7
I999356
sg8
I1362375
sg9
I100000
sg10
g6
sg11
g6
sg12
g6
sg13
I1362375
sg14
g6
sg15
g6
sg16
g6
sg17
I162
sg18
g6
sg19
I00
sg20
g6
sg21
g6
sg22
I554422
sg23
g6
sg25
g6
ssS'WROBEL BRUCE'
p193
(dp194
g3
g6
sg4
g6
sg5
g6
sg7
g6
sg8
I139130
sg9
g6
sg10
g6
sg11
g6
sg12
g6
sg13
I139130
sg14
g6
sg15
g6
sg16
g6
sg17
g6
sg18
g6
sg19
I00
sg20
g6
sg21
g6
sg22
g6
sg23
g6
sg25
g6
ssS'LINDHOLM TOD A'
p195
(dp196
g3
I236457
sg4
g6
sg5
I204075
sg7
I875889
sg8
I2549361
sg9
I200000
sg10
I514847
sg11
g6
sg12
g6
sg13
I3064208
sg14
I57727
sg15
g6
sg16
g6
sg17
I2630
sg18
g6
sg19
I00
sg20
g6
sg21
g6
sg22
I175000
sg23
S'tod.lindholm@enron.com'
p197
sg25
g6
ssS'MEYER JEROME J'
p198
(dp199
g3
g6
sg4
g6
sg5
g6
sg7
I2151
sg8
g6
sg9
g6
sg10
g6
sg11
g6
sg12
g6
sg13
g6
sg14
I2151
sg15
g6
sg16
g6
sg17
g6
sg18
g6
sg19
I00
sg20
I38346
sg21
I-38346
sg22
g6
sg23
g6
sg25
g6
ssS'LAY KENNETH L'
p200
(dp201
g3
I1072321
sg4
I4273
sg5
I202911
sg7
I103559793
sg8
I34348384
sg9
I7000000
sg10
I14761694
sg11
I2411
sg12
g6
sg13
I49110078
sg14
I99832
sg15
I81525000
sg16
I36
sg17
I10359729
sg18
I16
sg19
I01
sg20
g6
sg21
I-300000
sg22
I3600000
sg23
S'kenneth.lay@enron.com'
p202
sg25
I123
ssS'BUTTS ROBERT H'
p203
(dp204
g3
I261516
sg4
g6
sg5
g6
sg7
I1271582
sg8
g6
sg9
I750000
sg10
I417619
sg11
g6
sg12
g6
sg13
I417619
sg14
I9410
sg15
g6
sg16
g6
sg17
I150656
sg18
g6
sg19
I00
sg20
g6
sg21
I-75000
sg22
I175000
sg23
S'bob.butts@enron.com'
p205
sg25
g6
ssS'OLSON CINDY K'
p206
(dp207
g3
I329078
sg4
I1184
sg5
I77716
sg7
I1321557
sg8
I1637034
sg9
I750000
sg10
I969729
sg11
I856
sg12
g6
sg13
I2606763
sg14
I63791
sg15
g6
sg16
I52
sg17
I972
sg18
I15
sg19
I00
sg20
g6
sg21
g6
sg22
I100000
sg23
S'cindy.olson@enron.com'
p208
sg25
I20
ssS'MCDONALD REBECCA'
p209
(dp210
g3
g6
sg4
I894
sg5
g6
sg7
g6
sg8
I757301
sg9
g6
sg10
I934065
sg11
I720
sg12
g6
sg13
I1691366
sg14
g6
sg15
g6
sg16
I13
sg17
g6
sg18
I1
sg19
I00
sg20
g6
sg21
g6
sg22
g6
sg23
S'rebecca.mcdonald@enron.com'
p211
sg25
I54
ssS'CUMBERLAND MICHAEL S'
p212
(dp213
g3
I184899
sg4
g6
sg5
g6
sg7
I807956
sg8
g6
sg9
I325000
sg10
I207940
sg11
g6
sg12
g6
sg13
I207940
sg14
I22344
sg15
g6
sg16
g6
sg17
I713
sg18
g6
sg19
I00
sg20
g6
sg21
g6
sg22
I275000
sg23
g6
sg25
g6
ssS'GAHN ROBERT S'
p214
(dp215
g3
I192008
sg4
g6
sg5
I73122
sg7
I900585
sg8
I83237
sg9
I509870
sg10
I235370
sg11
g6
sg12
g6
sg13
I318607
sg14
I50080
sg15
g6
sg16
g6
sg17
I76547
sg18
g6
sg19
I00
sg20
g6
sg21
I-1042
sg22
g6
sg23
g6
sg25
g6
ssS'BADUM JAMES P'
p216
(dp217
g3
g6
sg4
g6
sg5
I178980
sg7
I182466
sg8
I257817
sg9
g6
sg10
g6
sg11
g6
sg12
g6
sg13
I257817
sg14
I3486
sg15
g6
sg16
g6
sg17
g6
sg18
g6
sg19
I00
sg20
g6
sg21
g6
sg22
g6
sg23
g6
sg25
g6
ssS'HERMANN ROBERT J'
p218
(dp219
g3
I262663
sg4
g6
sg5
g6
sg7
I1297461
sg8
I187500
sg9
I700000
sg10
I480632
sg11
g6
sg12
g6
sg13
I668132
sg14
I48357
sg15
g6
sg16
g6
sg17
I416441
sg18
g6
sg19
I00
sg20
g6
sg21
I-280000
sg22
I150000
sg23
S'robert.hermann@enron.com'
p220
sg25
g6
ssS'FALLON JAMES B'
p221
(dp222
g3
I304588
sg4
I1755
sg5
g6
sg7
I3676340
sg8
I940257
sg9
I2500000
sg10
I1392142
sg11
I1604
sg12
g6
sg13
I2332399
sg14
I95924
sg15
g6
sg16
I75
sg17
I401481
sg18
I37
sg19
I00
sg20
g6
sg21
g6
sg22
I374347
sg23
S'jim.fallon@enron.com'
p223
sg25
I42
ssS'GATHMANN WILLIAM D'
p224
(dp225
g3
g6
sg4
g6
sg5
g6
sg7
g6
sg8
I1753766
sg9
g6
sg10
I264013
sg11
g6
sg12
I-72419
sg13
I1945360
sg14
g6
sg15
g6
sg16
g6
sg17
g6
sg18
g6
sg19
I00
sg20
g6
sg21
g6
sg22
g6
sg23
g6
sg25
g6
ssS'HORTON STANLEY C'
p226
(dp227
g3
g6
sg4
I2350
sg5
I3131860
sg7
I3131860
sg8
I5210569
sg9
g6
sg10
I2046079
sg11
I1074
sg12
g6
sg13
I7256648
sg14
g6
sg15
g6
sg16
I1073
sg17
g6
sg18
I15
sg19
I00
sg20
g6
sg21
g6
sg22
g6
sg23
S'stanley.horton@enron.com'
p228
sg25
I44
ssS'BOWEN JR RAYMOND M'
p229
(dp230
g3
I278601
sg4
I1858
sg5
g6
sg7
I2669589
sg8
g6
sg9
I1350000
sg10
I252055
sg11
I1593
sg12
g6
sg13
I252055
sg14
I65907
sg15
g6
sg16
I27
sg17
I1621
sg18
I15
sg19
I01
sg20
g6
sg21
I-833
sg22
I974293
sg23
S'raymond.bowen@enron.com'
p231
sg25
I140
ssS'GILLIS JOHN'
p232
(dp233
g3
g6
sg4
g6
sg5
g6
sg7
g6
sg8
I9803
sg9
g6
sg10
I75838
sg11
g6
sg12
g6
sg13
I85641
sg14
g6
sg15
g6
sg16
g6
sg17
g6
sg18
g6
sg19
I00
sg20
g6
sg21
g6
sg22
g6
sg23
g6
sg25
g6
ssS'FITZGERALD JAY L'
p234
(dp235
g3
I199157
sg4
I936
sg5
g6
sg7
I1414857
sg8
I664461
sg9
I350000
sg10
I956775
sg11
I723
sg12
g6
sg13
I1621236
sg14
I23870
sg15
g6
sg16
I16
sg17
I285414
sg18
I8
sg19
I00
sg20
g6
sg21
g6
sg22
I556416
sg23
S'jay.fitzgerald@enron.com'
p236
sg25
I1
ssS'MORAN MICHAEL P'
p237
(dp238
g3
g6
sg4
I672
sg5
g6
sg7
g6
sg8
I59539
sg9
g6
sg10
I161602
sg11
I127
sg12
g6
sg13
I221141
sg14
g6
sg15
g6
sg16
I19
sg17
g6
sg18
I0
sg19
I00
sg20
g6
sg21
g6
sg22
g6
sg23
S'michael.moran@enron.com'
p239
sg25
I0
ssS'REDMOND BRIAN L'
p240
(dp241
g3
I96840
sg4
I1671
sg5
g6
sg7
I111529
sg8
I7509039
sg9
g6
sg10
I381285
sg11
I1063
sg12
g6
sg13
I7890324
sg14
I14689
sg15
g6
sg16
I221
sg17
g6
sg18
I49
sg19
I00
sg20
g6
sg21
g6
sg22
g6
sg23
S'brian.redmond@enron.com'
p242
sg25
I204
ssS'BAZELIDES PHILIP J'
p243
(dp244
g3
I80818
sg4
g6
sg5
I684694
sg7
I860136
sg8
I1599641
sg9
g6
sg10
g6
sg11
g6
sg12
g6
sg13
I1599641
sg14
g6
sg15
g6
sg16
g6
sg17
I874
sg18
g6
sg19
I00
sg20
g6
sg21
g6
sg22
I93750
sg23
g6
sg25
g6
ssS'BELDEN TIMOTHY N'
p245
(dp246
g3
I213999
sg4
I7991
sg5
I2144013
sg7
I5501630
sg8
I953136
sg9
I5249999
sg10
I157569
sg11
I5521
sg12
g6
sg13
I1110705
sg14
I17355
sg15
g6
sg16
I484
sg17
I210698
sg18
I108
sg19
I01
sg20
g6
sg21
I-2334434
sg22
g6
sg23
S'tim.belden@enron.com'
p247
sg25
I228
ssS'DIMICHELE RICHARD G'
p248
(dp249
g3
I262788
sg4
g6
sg5
g6
sg7
I2368151
sg8
I8191755
sg9
I1000000
sg10
I126027
sg11
g6
sg12
g6
sg13
I8317782
sg14
I35812
sg15
g6
sg16
g6
sg17
I374689
sg18
g6
sg19
I00
sg20
g6
sg21
g6
sg22
I694862
sg23
S'richard.dimichele@enron.com'
p250
sg25
g6
ssS'DURAN WILLIAM D'
p251
(dp252
g3
I210692
sg4
I904
sg5
g6
sg7
I2093263
sg8
I1451869
sg9
I750000
sg10
I189041
sg11
I599
sg12
g6
sg13
I1640910
sg14
I25785
sg15
g6
sg16
I12
sg17
I1568
sg18
I3
sg19
I00
sg20
g6
sg21
g6
sg22
I1105218
sg23
S'w.duran@enron.com'
p253
sg25
I106
ssS'THORN TERENCE H'
p254
(dp255
g3
I222093
sg4
I266
sg5
I16586
sg7
I911453
sg8
I4452476
sg9
g6
sg10
I365320
sg11
I73
sg12
g6
sg13
I4817796
sg14
I46145
sg15
g6
sg16
I41
sg17
I426629
sg18
I0
sg19
I00
sg20
g6
sg21
g6
sg22
I200000
sg23
S'terence.thorn@enron.com'
p256
sg25
I0
ssS'FASTOW ANDREW S'
p257
(dp258
g3
I440698
sg4
g6
sg5
g6
sg7
I2424083
sg8
g6
sg9
I1300000
sg10
I1794412
sg11
g6
sg12
g6
sg13
I1794412
sg14
I55921
sg15
g6
sg16
g6
sg17
I277464
sg18
g6
sg19
I01
sg20
g6
sg21
I-1386055
sg22
I1736055
sg23
S'andrew.fastow@enron.com'
p259
sg25
g6
ssS'FOY JOE'
p260
(dp261
g3
g6
sg4
I57
sg5
I181755
sg7
I181755
sg8
I343434
sg9
g6
sg10
g6
sg11
I2
sg12
g6
sg13
I343434
sg14
g6
sg15
g6
sg16
I13
sg17
g6
sg18
I0
sg19
I00
sg20
g6
sg21
g6
sg22
g6
sg23
S'tracy.foy@enron.com'
p262
sg25
I0
ssS'CALGER CHRISTOPHER F'
p263
(dp264
g3
I240189
sg4
I2598
sg5
g6
sg7
I1639297
sg8
g6
sg9
I1250000
sg10
I126027
sg11
I2188
sg12
g6
sg13
I126027
sg14
I35818
sg15
g6
sg16
I144
sg17
I486
sg18
I25
sg19
I01
sg20
g6
sg21
I-262500
sg22
I375304
sg23
S'christopher.calger@enron.com'
p265
sg25
I199
ssS'RICE KENNETH D'
p266
(dp267
g3
I420636
sg4
I905
sg5
g6
sg7
I505050
sg8
I19794175
sg9
I1750000
sg10
I2748364
sg11
I864
sg12
g6
sg13
I22542539
sg14
I46950
sg15
g6
sg16
I18
sg17
I174839
sg18
I4
sg19
I01
sg20
g6
sg21
I-3504386
sg22
I1617011
sg23
S'ken.rice@enron.com'
p268
sg25
I42
ssS'KAMINSKI WINCENTY J'
p269
(dp270
g3
I275101
sg4
I4607
sg5
g6
sg7
I1086821
sg8
I850010
sg9
I400000
sg10
I126027
sg11
I583
sg12
g6
sg13
I976037
sg14
I83585
sg15
g6
sg16
I14368
sg17
I4669
sg18
I171
sg19
I00
sg20
g6
sg21
g6
sg22
I323466
sg23
S'vince.kaminski@enron.com'
p271
sg25
I41
ssS'LOCKHART EUGENE E'
p272
(dp273
g3
g6
sg4
g6
sg5
g6
sg7
g6
sg8
g6
sg9
g6
sg10
g6
sg11
g6
sg12
g6
sg13
g6
sg14
g6
sg15
g6
sg16
g6
sg17
g6
sg18
g6
sg19
I00
sg20
g6
sg21
g6
sg22
g6
sg23
g6
sg25
g6
ssS'COX DAVID'
p274
(dp275
g3
I314288
sg4
I102
sg5
g6
sg7
I1101393
sg8
I117551
sg9
I800000
sg10
I378082
sg11
I71
sg12
g6
sg13
I495633
sg14
I27861
sg15
g6
sg16
I33
sg17
I494
sg18
I4
sg19
I00
sg20
g6
sg21
I-41250
sg22
g6
sg23
S'chip.cox@enron.com'
p276
sg25
I0
ssS'OVERDYKE JR JERE C'
p277
(dp278
g3
I94941
sg4
g6
sg5
g6
sg7
I249787
sg8
I5266578
sg9
g6
sg10
I2041016
sg11
g6
sg12
g6
sg13
I7307594
sg14
I18834
sg15
g6
sg16
g6
sg17
I176
sg18
g6
sg19
I00
sg20
g6
sg21
g6
sg22
I135836
sg23
S'jere.overdyke@enron.com'
p279
sg25
g6
ssS'PEREIRA PAULO V. FERRAZ'
p280
(dp281
g3
g6
sg4
g6
sg5
g6
sg7
I27942
sg8
g6
sg9
g6
sg10
g6
sg11
g6
sg12
g6
sg13
g6
sg14
I27942
sg15
g6
sg16
g6
sg17
g6
sg18
g6
sg19
I00
sg20
I101250
sg21
I-101250
sg22
g6
sg23
g6
sg25
g6
ssS'STABLER FRANK'
p282
(dp283
g3
I239502
sg4
g6
sg5
g6
sg7
I1112087
sg8
g6
sg9
I500000
sg10
I511734
sg11
g6
sg12
g6
sg13
I511734
sg14
I16514
sg15
g6
sg16
g6
sg17
I356071
sg18
g6
sg19
I00
sg20
g6
sg21
g6
sg22
g6
sg23
S'frank.stabler@enron.com'
p284
sg25
g6
ssS'SKILLING JEFFREY K'
p285
(dp286
g3
I1111258
sg4
I3627
sg5
g6
sg7
I8682716
sg8
I19250000
sg9
I5600000
sg10
I6843672
sg11
I2042
sg12
g6
sg13
I26093672
sg14
I29336
sg15
g6
sg16
I108
sg17
I22122
sg18
I30
sg19
I01
sg20
g6
sg21
g6
sg22
I1920000
sg23
S'jeff.skilling@enron.com'
p287
sg25
I88
ssS'BLAKE JR. NORMAN P'
p288
(dp289
g3
g6
sg4
g6
sg5
g6
sg7
I1279
sg8
g6
sg9
g6
sg10
g6
sg11
g6
sg12
g6
sg13
g6
sg14
I1279
sg15
g6
sg16
g6
sg17
g6
sg18
g6
sg19
I00
sg20
I113784
sg21
I-113784
sg22
g6
sg23
g6
sg25
g6
ssS'SHERRICK JEFFREY B'
p290
(dp291
g3
g6
sg4
I613
sg5
g6
sg7
g6
sg8
I1426469
sg9
g6
sg10
I405999
sg11
I583
sg12
g6
sg13
I1832468
sg14
g6
sg15
g6
sg16
I25
sg17
g6
sg18
I18
sg19
I00
sg20
g6
sg21
g6
sg22
g6
sg23
S'jeffrey.sherrick@enron.com'
p292
sg25
I39
ssS'PRENTICE JAMES'
p293
(dp294
g3
g6
sg4
g6
sg5
I564348
sg7
I564348
sg8
I886231
sg9
g6
sg10
I208809
sg11
g6
sg12
g6
sg13
I1095040
sg14
g6
sg15
g6
sg16
g6
sg17
g6
sg18
g6
sg19
I00
sg20
g6
sg21
g6
sg22
g6
sg23
S'james.prentice@enron.com'
p295
sg25
g6
ssS'GRAY RODNEY'
p296
(dp297
g3
I6615
sg4
g6
sg5
I93585
sg7
I1146658
sg8
g6
sg9
g6
sg10
g6
sg11
g6
sg12
g6
sg13
g6
sg14
g6
sg15
g6
sg16
g6
sg17
I680833
sg18
g6
sg19
I00
sg20
g6
sg21
g6
sg22
I365625
sg23
g6
sg25
g6
ssS'THE TRAVEL AGENCY IN THE PARK'
p298
(dp299
g3
g6
sg4
g6
sg5
g6
sg7
I362096
sg8
g6
sg9
g6
sg10
g6
sg11
g6
sg12
g6
sg13
g6
sg14
g6
sg15
g6
sg16
g6
sg17
I362096
sg18
g6
sg19
I00
sg20
g6
sg21
g6
sg22
g6
sg23
g6
sg25
g6
ssS'UMANOFF ADAM S'
p300
(dp301
g3
I288589
sg4
I111
sg5
g6
sg7
I1130461
sg8
g6
sg9
I788750
sg10
g6
sg11
I41
sg12
g6
sg13
g6
sg14
I53122
sg15
g6
sg16
I18
sg17
g6
sg18
I0
sg19
I00
sg20
g6
sg21
g6
sg22
g6
sg23
S'adam.umanoff@enron.com'
p302
sg25
I12
ssS'KEAN STEVEN J'
p303
(dp304
g3
I404338
sg4
I12754
sg5
g6
sg7
I1747522
sg8
I2022048
sg9
I1000000
sg10
I4131594
sg11
I3639
sg12
g6
sg13
I6153642
sg14
I41953
sg15
g6
sg16
I6759
sg17
I1231
sg18
I387
sg19
I00
sg20
g6
sg21
g6
sg22
I300000
sg23
S'steven.kean@enron.com'
p305
sg25
I140
ssS'TOTAL'
p306
(dp307
g3
I26704229
sg4
g6
sg5
I32083396
sg7
I309886585
sg8
I311764000
sg9
I97343619
sg10
I130322299
sg11
g6
sg12
I-7576788
sg13
I434509511
sg14
I5235198
sg15
I83925000
sg16
g6
sg17
I42667589
sg18
g6
sg19
I00
sg20
I1398517
sg21
I-27992891
sg22
I48521928
sg23
g6
sg25
g6
ssS'FOWLER PEGGY'
p308
(dp309
g3
g6
sg4
I517
sg5
g6
sg7
g6
sg8
I1324578
sg9
g6
sg10
I560170
sg11
I10
sg12
g6
sg13
I1884748
sg14
g6
sg15
g6
sg16
I36
sg17
g6
sg18
I0
sg19
I00
sg20
g6
sg21
g6
sg22
g6
sg23
S'kulvinder.fowler@enron.com'
p310
sg25
I0
ssS'WASAFF GEORGE'
p311
(dp312
g3
I259996
sg4
I400
sg5
I831299
sg7
I1034395
sg8
I1668260
sg9
I325000
sg10
I388167
sg11
I337
sg12
g6
sg13
I2056427
sg14
g6
sg15
g6
sg16
I30
sg17
I1425
sg18
I7
sg19
I00
sg20
g6
sg21
I-583325
sg22
I200000
sg23
S'george.wasaff@enron.com'
p313
sg25
I22
ssS'WHITE JR THOMAS E'
p314
(dp315
g3
I317543
sg4
g6
sg5
g6
sg7
I1934359
sg8
I1297049
sg9
I450000
sg10
I13847074
sg11
g6
sg12
g6
sg13
I15144123
sg14
I81353
sg15
g6
sg16
g6
sg17
I1085463
sg18
g6
sg19
I00
sg20
g6
sg21
g6
sg22
g6
sg23
S'thomas.white@enron.com'
p316
sg25
g6
ssS'CHRISTODOULOU DIOMEDES'
p317
(dp318
g3
g6
sg4
g6
sg5
g6
sg7
g6
sg8
I5127155
sg9
g6
sg10
I950730
sg11
g6
sg12
g6
sg13
I6077885
sg14
g6
sg15
g6
sg16
g6
sg17
g6
sg18
g6
sg19
I00
sg20
g6
sg21
g6
sg22
g6
sg23
S'diomedes.christodoulou@enron.com'
p319
sg25
g6
ssS'ALLEN PHILLIP K'
p320
(dp321
g3
I201955
sg4
I2902
sg5
I2869717
sg7
I4484442
sg8
I1729541
sg9
I4175000
sg10
I126027
sg11
I1407
sg12
I-126027
sg13
I1729541
sg14
I13868
sg15
g6
sg16
I2195
sg17
I152
sg18
I65
sg19
I00
sg20
g6
sg21
I-3081055
sg22
I304805
sg23
S'phillip.allen@enron.com'
p322
sg25
I47
ssS'SHARP VICTORIA T'
p323
(dp324
g3
I248146
sg4
I3136
sg5
I187469
sg7
I1576511
sg8
I281073
sg9
I600000
sg10
I213063
sg11
I2477
sg12
g6
sg13
I494136
sg14
I116337
sg15
g6
sg16
I136
sg17
I2401
sg18
I6
sg19
I00
sg20
g6
sg21
g6
sg22
I422158
sg23
S'vicki.sharp@enron.com'
p325
sg25
I24
ssS'JAEDICKE ROBERT'
p326
(dp327
g3
g6
sg4
g6
sg5
g6
sg7
I83750
sg8
I431750
sg9
g6
sg10
I44093
sg11
g6
sg12
I-44093
sg13
I431750
sg14
g6
sg15
g6
sg16
g6
sg17
g6
sg18
g6
sg19
I00
sg20
I108750
sg21
I-25000
sg22
g6
sg23
g6
sg25
g6
ssS'WINOKUR JR. HERBERT S'
p328
(dp329
g3
g6
sg4
g6
sg5
g6
sg7
I84992
sg8
g6
sg9
g6
sg10
g6
sg11
g6
sg12
g6
sg13
g6
sg14
I1413
sg15
g6
sg16
g6
sg17
g6
sg18
g6
sg19
I00
sg20
I108579
sg21
I-25000
sg22
g6
sg23
g6
sg25
g6
ssS'BROWN MICHAEL'
p330
(dp331
g3
g6
sg4
I1486
sg5
g6
sg7
I49288
sg8
g6
sg9
g6
sg10
g6
sg11
I761
sg12
g6
sg13
g6
sg14
I49288
sg15
g6
sg16
I41
sg17
g6
sg18
I1
sg19
I00
sg20
g6
sg21
g6
sg22
g6
sg23
S'michael.brown@enron.com'
p332
sg25
I13
ssS'MCCLELLAN GEORGE'
p333
(dp334
g3
I263413
sg4
I1744
sg5
g6
sg7
I1318763
sg8
I506765
sg9
I900000
sg10
I441096
sg11
I1469
sg12
g6
sg13
I947861
sg14
I228763
sg15
g6
sg16
I49
sg17
I51587
sg18
I0
sg19
I00
sg20
g6
sg21
I-125000
sg22
g6
sg23
S'george.mcclellan@enron.com'
p335
sg25
I52
ssS'HUGHES JAMES A'
p336
(dp337
g3
g6
sg4
I719
sg5
g6
sg7
g6
sg8
I754966
sg9
g6
sg10
I363428
sg11
I589
sg12
g6
sg13
I1118394
sg14
g6
sg15
g6
sg16
I34
sg17
g6
sg18
I5
sg19
I00
sg20
g6
sg21
g6
sg22
g6
sg23
S'james.hughes@enron.com'
p338
sg25
I35
ssS'REYNOLDS LAWRENCE'
p339
(dp340
g3
I76399
sg4
g6
sg5
I51365
sg7
I394475
sg8
I4160672
sg9
I100000
sg10
I201483
sg11
g6
sg12
I-140264
sg13
I4221891
sg14
I8409
sg15
g6
sg16
g6
sg17
I202052
sg18
g6
sg19
I00
sg20
g6
sg21
I-200000
sg22
I156250
sg23
g6
sg25
g6
ssS'PICKERING MARK R'
p341
(dp342
g3
I655037
sg4
I898
sg5
g6
sg7
I1386690
sg8
I28798
sg9
I300000
sg10
g6
sg11
I728
sg12
g6
sg13
I28798
sg14
I31653
sg15
I400000
sg16
I67
sg17
g6
sg18
I0
sg19
I00
sg20
g6
sg21
g6
sg22
g6
sg23
S'mark.pickering@enron.com'
p343
sg25
I7
ssS'BHATNAGAR SANJAY'
p344
(dp345
g3
g6
sg4
I523
sg5
g6
sg7
I137864
sg8
I15456290
sg9
g6
sg10
I2604490
sg11
I463
sg12
I-2604490
sS'total_stock_value'
p346
I15456290
sg14
I137864
sg15
g6
sg16
I29
sg17
g92
sg18
I1
sg19
I00
sg20
g92
sg21
g6
sg22
g6
sg23
S'sanjay.bhatnagar@enron.com'
p347
sg25
I0
ssS'CARTER REBECCA C'
p348
(dp349
g3
I261809
sg4
I312
sg5
g6
sg7
I477557
sg8
g6
sg9
I300000
sg10
I307301
sg11
I196
sg12
I-307301
sg13
g6
sg14
g6
sg15
g6
sg16
I15
sg17
I540
sg18
I7
sg19
I00
sg20
g6
sg21
I-159792
sg22
I75000
sg23
S'rebecca.carter@enron.com'
p350
sg25
I29
ssS'BUCHANAN HAROLD G'
p351
(dp352
g3
I248017
sg4
I1088
sg5
g6
sg7
I1054637
sg8
I825464
sg9
I500000
sg10
I189041
sg11
I23
sg12
g6
sg13
I1014505
sg14
I600
sg15
g6
sg16
I125
sg17
I1215
sg18
I0
sg19
I00
sg20
g6
sg21
g6
sg22
I304805
sg23
S'john.buchanan@enron.com'
p353
sg25
I0
ssS'YEAP SOON'
p354
(dp355
g3
g6
sg4
g6
sg5
g6
sg7
I55097
sg8
I192758
sg9
g6
sg10
g6
sg11
g6
sg12
g6
sg13
I192758
sg14
I55097
sg15
g6
sg16
g6
sg17
g6
sg18
g6
sg19
I00
sg20
g6
sg21
g6
sg22
g6
sg23
g6
sg25
g6
ssS'MURRAY JULIA H'
p356
(dp357
g3
I229284
sg4
I2192
sg5
g6
sg7
I812194
sg8
I400478
sg9
I400000
sg10
I196983
sg11
I395
sg12
g6
sg13
I597461
sg14
I57580
sg15
g6
sg16
I45
sg17
I330
sg18
I2
sg19
I00
sg20
g6
sg21
g6
sg22
I125000
sg23
S'julia.murray@enron.com'
p358
sg25
I11
ssS'GARLAND C KEVIN'
p359
(dp360
g3
I231946
sg4
I209
sg5
g6
sg7
I1566469
sg8
I636246
sg9
I850000
sg10
I259907
sg11
I178
sg12
g6
sg13
I896153
sg14
I48405
sg15
g6
sg16
I44
sg17
I60814
sg18
I27
sg19
I00
sg20
g6
sg21
g6
sg22
I375304
sg23
S'kevin.garland@enron.com'
p361
sg25
I10
ssS'DODSON KEITH'
p362
(dp363
g3
I221003
sg4
I176
sg5
g6
sg7
I319941
sg8
g6
sg9
I70000
sg10
g6
sg11
I114
sg12
g6
sg13
g6
sg14
I28164
sg15
g6
sg16
I14
sg17
I774
sg18
I3
sg19
I00
sg20
g6
sg21
g6
sg22
g6
sg23
S'keith.dodson@enron.com'
p364
sg25
I10
ssS'YEAGER F SCOTT'
p365
(dp366
g3
I158403
sg4
g6
sg5
g6
sg7
I360300
sg8
I8308552
sg9
g6
sg10
I3576206
sg11
g6
sg12
g6
sg13
I11884758
sg14
I53947
sg15
g6
sg16
g6
sg17
I147950
sg18
g6
sg19
I01
sg20
g6
sg21
g6
sg22
g6
sg23
S'scott.yeager@enron.com'
p367
sg25
g6
ssS'HIRKO JOSEPH'
p368
(dp369
g3
g6
sg4
g6
sg5
I10259
sg7
I91093
sg8
I30766064
sg9
g6
sg10
g6
sg11
g6
sg12
g6
sg13
I30766064
sg14
I77978
sg15
g6
sg16
g6
sg17
I2856
sg18
g6
sg19
I01
sg20
g6
sg21
g6
sg22
g6
sg23
S'joe.hirko@enron.com'
p370
sg25
g6
ssS'DIETRICH JANET R'
p371
(dp372
g3
I250100
sg4
I2572
sg5
g6
sg7
I1410464
sg8
I1550019
sg9
I600000
sg10
I315068
sg11
I1902
sg12
g6
sg13
I1865087
sg14
I3475
sg15
g6
sg16
I63
sg17
I473
sg18
I14
sg19
I00
sg20
g6
sg21
g6
sg22
I556416
sg23
S'janet.dietrich@enron.com'
p373
sg25
I305
ssS'DERRICK JR. JAMES V'
p374
(dp375
g3
I492375
sg4
I2181
sg5
g6
sg7
I550981
sg8
I8831913
sg9
I800000
sg10
I1787380
sg11
I1401
sg12
I-1787380
sg13
I8831913
sg14
I51124
sg15
g6
sg16
I909
sg17
I7482
sg18
I20
sg19
I00
sg20
g6
sg21
I-1284000
sg22
I484000
sg23
S'james.derrick@enron.com'
p376
sg25
I64
ssS'FREVERT MARK A'
p377
(dp378
g3
I1060932
sg4
I3275
sg5
I6426990
sg7
I17252530
sg8
I10433518
sg9
I2000000
sg10
I4188667
sg11
I2979
sg12
g6
sg13
I14622185
sg14
I86987
sg15
I2000000
sg16
I21
sg17
I7427621
sg18
I6
sg19
I00
sg20
g6
sg21
I-3367011
sg22
I1617011
sg23
S'mark.frevert@enron.com'
p379
sg25
I242
ssS'PAI LOU L'
p380
(dp381
g3
I261879
sg4
g6
sg5
g6
sg7
I3123383
sg8
I15364167
sg9
I1000000
sg10
I8453763
sg11
g6
sg12
g6
sg13
I23817930
sg14
I32047
sg15
g6
sg16
g6
sg17
I1829457
sg18
g6
sg19
I00
sg20
g6
sg21
g6
sg22
g6
sg23
S'lou.pai@enron.com'
p382
sg25
g6
ssS'HAYSLETT RODERICK J'
p383
(dp384
g3
g6
sg4
I2649
sg5
g6
sg7
g6
sg8
g6
sg9
g6
sg10
I346663
sg11
I571
sg12
g6
sg13
I346663
sg14
g6
sg15
g6
sg16
I1061
sg17
g6
sg18
I38
sg19
I00
sg20
g6
sg21
g6
sg22
g6
sg23
S'rod.hayslett@enron.com'
p385
sg25
I35
ssS'BAY FRANKLIN R'
p386
(dp387
g3
I239671
sg4
g6
sg5
I260455
sg7
I827696
sg8
g6
sg9
I400000
sg10
I145796
sg11
g6
sg12
I-82782
sg13
I63014
sg14
I129142
sg15
g6
sg16
g6
sg17
I69
sg18
g6
sg19
I00
sg20
g6
sg21
I-201641
sg22
g6
sg23
S'frank.bay@enron.com'
p388
sg25
g6
ssS'MCCARTY DANNY J'
p389
(dp390
g3
g6
sg4
I1433
sg5
g6
sg7
g6
sg8
I664375
sg9
g6
sg10
I94556
sg11
I508
sg12
g6
sg13
I758931
sg14
g6
sg15
g6
sg16
I215
sg17
g6
sg18
I2
sg19
I00
sg20
g6
sg21
g6
sg22
g6
sg23
S'danny.mccarty@enron.com'
p391
sg25
I25
ssS'FUGH JOHN L'
p392
(dp393
g3
g6
sg4
g6
sg5
I50591
sg7
I50591
sg8
I176378
sg9
g6
sg10
g6
sg11
g6
sg12
g6
sg13
I176378
sg14
g6
sg15
g6
sg16
g6
sg17
g6
sg18
g6
sg19
I00
sg20
g6
sg21
g6
sg22
g6
sg23
g6
sg25
g6
ssS'SCRIMSHAW MATTHEW'
p394
(dp395
g3
g6
sg4
g6
sg5
g6
sg7
g6
sg8
I759557
sg9
g6
sg10
g6
sg11
g6
sg12
g6
sg13
I759557
sg14
g6
sg15
g6
sg16
g6
sg17
g6
sg18
g6
sg19
I00
sg20
g6
sg21
g6
sg22
g6
sg23
S'matthew.scrimshaw@enron.com'
p396
sg25
g6
ssS'KOENIG MARK E'
p397
(dp398
g3
I309946
sg4
I2374
sg5
g6
sg7
I1587421
sg8
I671737
sg9
I700000
sg10
I1248318
sg11
I2271
sg12
g6
sg13
I1920055
sg14
I127017
sg15
g6
sg16
I61
sg17
I150458
sg18
I15
sg19
I01
sg20
g6
sg21
g6
sg22
I300000
sg23
S'mark.koenig@enron.com'
p399
sg25
I53
ssS'SAVAGE FRANK'
p400
(dp401
g3
g6
sg4
g6
sg5
g6
sg7
I3750
sg8
g6
sg9
g6
sg10
g6
sg11
g6
sg12
g6
sg13
g6
sg14
g6
sg15
g6
sg16
g6
sg17
g6
sg18
g6
sg19
I00
sg20
I125034
sg21
I-121284
sg22
g6
sg23
g6
sg25
g6
ssS'IZZO LAWRENCE L'
p402
(dp403
g3
I85274
sg4
I496
sg5
g6
sg7
I1979596
sg8
I2165172
sg9
g6
sg10
I3654808
sg11
I437
sg12
g6
sg13
I5819980
sg14
I28093
sg15
g6
sg16
I19
sg17
I1553729
sg18
I5
sg19
I00
sg20
g6
sg21
g6
sg22
I312500
sg23
S'larry.izzo@enron.com'
p404
sg25
I28
ssS'TILNEY ELIZABETH A'
p405
(dp406
g3
I247338
sg4
I460
sg5
g6
sg7
I399393
sg8
I591250
sg9
I300000
sg10
I576792
sg11
I379
sg12
g6
sg13
I1168042
sg14
g6
sg15
g6
sg16
I19
sg17
I152055
sg18
I11
sg19
I00
sg20
g6
sg21
I-575000
sg22
I275000
sg23
S'elizabeth.tilney@enron.com'
p407
sg25
I10
ssS'MARTIN AMANDA K'
p408
(dp409
g3
I349487
sg4
I1522
sg5
I85430
sg7
I8407016
sg8
I2070306
sg9
g6
sg10
g6
sg11
I477
sg12
g6
sg13
I2070306
sg14
I8211
sg15
g6
sg16
I230
sg17
I2818454
sg18
I0
sg19
I00
sg20
g6
sg21
g6
sg22
I5145434
sg23
S'a..martin@enron.com'
p410
sg25
I8
ssS'BUY RICHARD B'
p411
(dp412
g3
I330546
sg4
I3523
sg5
I649584
sg7
I2355702
sg8
I2542813
sg9
I900000
sg10
I901657
sg11
I2333
sg12
g6
sg13
I3444470
sg14
g6
sg15
g6
sg16
I1053
sg17
I400572
sg18
I71
sg19
I00
sg20
g6
sg21
I-694862
sg22
I769862
sg23
S'rick.buy@enron.com'
p413
sg25
I156
ssS'GRAMM WENDY L'
p414
(dp415
g3
g6
sg4
g6
sg5
g6
sg7
I119292
sg8
g6
sg9
g6
sg10
g6
sg11
g6
sg12
g6
sg13
g6
sg14
g6
sg15
g6
sg16
g6
sg17
g6
sg18
g6
sg19
I00
sg20
I119292
sg21
g6
sg22
g6
sg23
g6
sg25
g6
ssS'CAUSEY RICHARD A'
p416
(dp417
g3
I415189
sg4
I1892
sg5
g6
sg7
I1868758
sg8
g6
sg9
I1000000
sg10
I2502063
sg11
I1585
sg12
g6
sg13
I2502063
sg14
I30674
sg15
g6
sg16
I49
sg17
I307895
sg18
I12
sg19
I01
sg20
g6
sg21
I-235000
sg22
I350000
sg23
S'richard.causey@enron.com'
p418
sg25
I58
ssS'TAYLOR MITCHELL S'
p419
(dp420
g3
I265214
sg4
I533
sg5
I227449
sg7
I1092663
sg8
I3181250
sg9
I600000
sg10
I563798
sg11
I300
sg12
g6
sg13
I3745048
sg14
g6
sg15
g6
sg16
I29
sg17
g6
sg18
I0
sg19
I00
sg20
g6
sg21
g6
sg22
g6
sg23
S'mitchell.taylor@enron.com'
p421
sg25
I0
ssS'DONAHUE JR JEFFREY M'
p422
(dp423
g3
I278601
sg4
I865
sg5
g6
sg7
I875760
sg8
I765920
sg9
I800000
sg10
I315068
sg11
I772
sg12
g6
sg13
I1080988
sg14
I96268
sg15
g6
sg16
I22
sg17
I891
sg18
I11
sg19
I00
sg20
g6
sg21
I-300000
sg22
g6
sg23
S'jeff.donahue@enron.com'
p424
sg25
I188
ssS'GLISAN JR BEN F'
p425
(dp426
g3
I274975
sg4
I873
sg5
g6
sg7
I1272284
sg8
I384728
sg9
I600000
sg10
I393818
sg11
I874
sg12
g6
sg13
I778546
sg14
I125978
sg15
g6
sg16
I16
sg17
I200308
sg18
I6
sg19
I01
sg20
g6
sg21
g6
sg22
I71023
sg23
S'ben.glisan@enron.com'
p427
sg25
I52
ss.