(dp0
S'METTS MARK'
p1
(dp2
S'to_messages'
p3
F807.0
sS'deferral_payments'
p4
F0.0
sS'expenses'
p5
F94299.0
sS'poi'
p6
I00
sS'deferred_income'
p7
F0.0
sS'from_poi_to_this_person'
p8
F38.0
sS'restricted_stock_deferred'
p9
F0.0
sS'shared_receipt_with_poi'
p10
F702.0
sS'loan_advances'
p11
F0.0
sS'from_messages'
p12
F29.0
sS'other'
p13
F1740.0
sS'director_fees'
p14
F0.0
sS'bonus'
p15
F600000.0
sS'total_stock_value'
p16
F585062.0
sS'from_this_person_to_poi'
p17
F1.0
sS'total_compensation'
p18
F1646889.0
sS'long_term_incentive'
p19
F0.0
sS'restricted_stock'
p20
F585062.0
sS'salary'
p21
F365788.0
sS'total_payments'
p22
F1061827.0
sS'exercised_stock_options'
p23
F0.0
sS'total_poi_interaction'
p24
F741.0
ssS'BAXTER JOHN C'
p25
(dp26
g3
F0.0
sg4
F1295738.0
sg5
F11200.0
sg6
I00
sg7
F-1386055.0
sg8
F0.0
sg9
F0.0
sg10
F0.0
sg11
F0.0
sg12
F0.0
sg13
F2660303.0
sg14
F0.0
sg15
F1200000.0
sg16
F10623258.0
sg17
F0.0
sg18
F16257601.0
sg19
F1586055.0
sg20
F3942714.0
sg21
F267102.0
sg22
F5634343.0
sg23
F6680544.0
sg24
F0.0
ssS'ELLIOTT STEVEN'
p27
(dp28
g3
F0.0
sg4
F0.0
sg5
F78552.0
sg6
I00
sg7
F-400729.0
sg8
F0.0
sg9
F0.0
sg10
F0.0
sg11
F0.0
sg12
F0.0
sg13
F12961.0
sg14
F0.0
sg15
F350000.0
sg16
F6678735.0
sg17
F0.0
sg18
F6890460.0
sg19
F0.0
sg20
F1788391.0
sg21
F170941.0
sg22
F211725.0
sg23
F4890344.0
sg24
F0.0
ssS'CORDES WILLIAM R'
p29
(dp30
g3
F764.0
sg4
F0.0
sg5
F0.0
sg6
I00
sg7
F0.0
sg8
F10.0
sg9
F0.0
sg10
F58.0
sg11
F0.0
sg12
F12.0
sg13
F0.0
sg14
F0.0
sg15
F0.0
sg16
F1038185.0
sg17
F0.0
sg18
F0.0
sg19
F0.0
sg20
F386335.0
sg21
F0.0
sg22
F0.0
sg23
F651850.0
sg24
F68.0
ssS'HANNON KEVIN P'
p31
(dp32
g3
F1045.0
sg4
F0.0
sg5
F34039.0
sg6
I01
sg7
F-3117011.0
sg8
F32.0
sg9
F0.0
sg10
F1035.0
sg11
F0.0
sg12
F32.0
sg13
F11350.0
sg14
F0.0
sg15
F1500000.0
sg16
F6391065.0
sg17
F21.0
sg18
F6679747.0
sg19
F1617011.0
sg20
F853064.0
sg21
F243293.0
sg22
F288682.0
sg23
F5538001.0
sg24
F1088.0
ssS'MORDAUNT KRISTINA M'
p33
(dp34
g3
F0.0
sg4
F0.0
sg5
F35018.0
sg6
I00
sg7
F0.0
sg8
F0.0
sg9
F0.0
sg10
F0.0
sg11
F0.0
sg12
F0.0
sg13
F1411.0
sg14
F0.0
sg15
F325000.0
sg16
F208510.0
sg17
F0.0
sg18
F837032.0
sg19
F0.0
sg20
F208510.0
sg21
F267093.0
sg22
F628522.0
sg23
F0.0
sg24
F0.0
ssS'MEYER ROCKFORD G'
p35
(dp36
g3
F232.0
sg4
F1848227.0
sg5
F0.0
sg6
I00
sg7
F0.0
sg8
F0.0
sg9
F0.0
sg10
F22.0
sg11
F0.0
sg12
F28.0
sg13
F0.0
sg14
F0.0
sg15
F0.0
sg16
F955873.0
sg17
F0.0
sg18
F2804100.0
sg19
F0.0
sg20
F462384.0
sg21
F0.0
sg22
F1848227.0
sg23
F493489.0
sg24
F22.0
ssS'MCMAHON JEFFREY'
p37
(dp38
g3
F2355.0
sg4
F0.0
sg5
F137108.0
sg6
I00
sg7
F0.0
sg8
F58.0
sg9
F0.0
sg10
F2228.0
sg11
F0.0
sg12
F48.0
sg13
F297353.0
sg14
F0.0
sg15
F2600000.0
sg16
F1662855.0
sg17
F26.0
sg18
F5762626.0
sg19
F694862.0
sg20
F558801.0
sg21
F370448.0
sg22
F4099771.0
sg23
F1104054.0
sg24
F2312.0
ssS'HORTON STANLEY C'
p39
(dp40
g3
F2350.0
sg4
F3131860.0
sg5
F0.0
sg6
I00
sg7
F0.0
sg8
F44.0
sg9
F0.0
sg10
F1074.0
sg11
F0.0
sg12
F1073.0
sg13
F0.0
sg14
F0.0
sg15
F0.0
sg16
F7256648.0
sg17
F15.0
sg18
F10388508.0
sg19
F0.0
sg20
F2046079.0
sg21
F0.0
sg22
F3131860.0
sg23
F5210569.0
sg24
F1133.0
ssS'PIPER GREGORY F'
p41
(dp42
g3
F1238.0
sg4
F1130036.0
sg5
F43057.0
sg6
I00
sg7
F-33333.0
sg8
F61.0
sg9
F-409554.0
sg10
F742.0
sg11
F0.0
sg12
F222.0
sg13
F778.0
sg14
F0.0
sg15
F400000.0
sg16
F880290.0
sg17
F48.0
sg18
F2617919.0
sg19
F0.0
sg20
F409554.0
sg21
F197091.0
sg22
F1737629.0
sg23
F880290.0
sg24
F851.0
ssS'HUMPHREY GENE E'
p43
(dp44
g3
F128.0
sg4
F2964506.0
sg5
F4994.0
sg6
I00
sg7
F0.0
sg8
F10.0
sg9
F0.0
sg10
F119.0
sg11
F0.0
sg12
F17.0
sg13
F0.0
sg14
F0.0
sg15
F0.0
sg16
F2282768.0
sg17
F17.0
sg18
F5382992.0
sg19
F0.0
sg20
F0.0
sg21
F130724.0
sg22
F3100224.0
sg23
F2282768.0
sg24
F146.0
ssS'UMANOFF ADAM S'
p45
(dp46
g3
F111.0
sg4
F0.0
sg5
F53122.0
sg6
I00
sg7
F0.0
sg8
F12.0
sg9
F0.0
sg10
F41.0
sg11
F0.0
sg12
F18.0
sg13
F0.0
sg14
F0.0
sg15
F788750.0
sg16
F0.0
sg17
F0.0
sg18
F0.0
sg19
F0.0
sg20
F0.0
sg21
F288589.0
sg22
F1130461.0
sg23
F0.0
sg24
F53.0
ssS'BLACHMAN JEREMY M'
p47
(dp48
g3
F2475.0
sg4
F0.0
sg5
F84208.0
sg6
I00
sg7
F0.0
sg8
F25.0
sg9
F0.0
sg10
F2326.0
sg11
F0.0
sg12
F14.0
sg13
F272.0
sg14
F0.0
sg15
F850000.0
sg16
F954354.0
sg17
F2.0
sg18
F2969189.0
sg19
F831809.0
sg20
F189041.0
sg21
F248546.0
sg22
F2014835.0
sg23
F765313.0
sg24
F2353.0
ssS'SUNDE MARTIN'
p49
(dp50
g3
F2647.0
sg4
F0.0
sg5
F0.0
sg6
I00
sg7
F0.0
sg8
F37.0
sg9
F0.0
sg10
F2565.0
sg11
F0.0
sg12
F38.0
sg13
F111122.0
sg14
F0.0
sg15
F700000.0
sg16
F698920.0
sg17
F13.0
sg18
F2243979.0
sg19
F476451.0
sg20
F698920.0
sg21
F257486.0
sg22
F1545059.0
sg23
F0.0
sg24
F2615.0
ssS'GIBBS DANA R'
p51
(dp52
g3
F169.0
sg4
F504610.0
sg5
F0.0
sg6
I00
sg7
F0.0
sg8
F0.0
sg9
F0.0
sg10
F23.0
sg11
F0.0
sg12
F12.0
sg13
F0.0
sg14
F0.0
sg15
F0.0
sg16
F2218275.0
sg17
F0.0
sg18
F3184797.0
sg19
F461912.0
sg20
F0.0
sg21
F0.0
sg22
F966522.0
sg23
F2218275.0
sg24
F23.0
ssS'LOWRY CHARLES P'
p53
(dp54
g3
F0.0
sg4
F0.0
sg5
F0.0
sg6
I00
sg7
F0.0
sg8
F0.0
sg9
F-153686.0
sg10
F0.0
sg11
F0.0
sg12
F0.0
sg13
F0.0
sg14
F0.0
sg15
F0.0
sg16
F372205.0
sg17
F0.0
sg18
F0.0
sg19
F0.0
sg20
F153686.0
sg21
F0.0
sg22
F0.0
sg23
F372205.0
sg24
F0.0
ssS'COLWELL WESLEY'
p55
(dp56
g3
F1758.0
sg4
F27610.0
sg5
F16514.0
sg6
I01
sg7
F-144062.0
sg8
F240.0
sg9
F0.0
sg10
F1132.0
sg11
F0.0
sg12
F40.0
sg13
F101740.0
sg14
F0.0
sg15
F1200000.0
sg16
F698242.0
sg17
F11.0
sg18
F2188586.0
sg19
F0.0
sg20
F698242.0
sg21
F288542.0
sg22
F1490344.0
sg23
F0.0
sg24
F1383.0
ssS'MULLER MARK S'
p57
(dp58
g3
F136.0
sg4
F842924.0
sg5
F0.0
sg6
I00
sg7
F-719000.0
sg8
F12.0
sg9
F0.0
sg10
F114.0
sg11
F0.0
sg12
F16.0
sg13
F947.0
sg14
F0.0
sg15
F1100000.0
sg16
F1416848.0
sg17
F0.0
sg18
F4618918.0
sg19
F1725545.0
sg20
F360528.0
sg21
F251654.0
sg22
F3202070.0
sg23
F1056320.0
sg24
F126.0
ssS'JACKSON CHARLENE R'
p59
(dp60
g3
F258.0
sg4
F0.0
sg5
F10181.0
sg6
I00
sg7
F0.0
sg8
F25.0
sg9
F0.0
sg10
F117.0
sg11
F0.0
sg12
F56.0
sg13
F2435.0
sg14
F0.0
sg15
F250000.0
sg16
F725735.0
sg17
F19.0
sg18
F1276909.0
sg19
F0.0
sg20
F540672.0
sg21
F288558.0
sg22
F551174.0
sg23
F185063.0
sg24
F161.0
ssS'WESTFAHL RICHARD K'
p61
(dp62
g3
F0.0
sg4
F0.0
sg5
F51870.0
sg6
I00
sg7
F-10800.0
sg8
F0.0
sg9
F0.0
sg10
F0.0
sg11
F0.0
sg12
F0.0
sg13
F401130.0
sg14
F0.0
sg15
F0.0
sg16
F384930.0
sg17
F0.0
sg18
F1147065.0
sg19
F256191.0
sg20
F384930.0
sg21
F63744.0
sg22
F762135.0
sg23
F0.0
sg24
F0.0
ssS'WALTERS GARETH W'
p63
(dp64
g3
F0.0
sg4
F53625.0
sg5
F33785.0
sg6
I00
sg7
F0.0
sg8
F0.0
sg9
F0.0
sg10
F0.0
sg11
F0.0
sg12
F0.0
sg13
F0.0
sg14
F0.0
sg15
F0.0
sg16
F1030329.0
sg17
F0.0
sg18
F1117739.0
sg19
F0.0
sg20
F0.0
sg21
F0.0
sg22
F87410.0
sg23
F1030329.0
sg24
F0.0
ssS'WALLS JR ROBERT H'
p65
(dp66
g3
F671.0
sg4
F0.0
sg5
F50936.0
sg6
I00
sg7
F0.0
sg8
F17.0
sg9
F0.0
sg10
F215.0
sg11
F0.0
sg12
F146.0
sg13
F2.0
sg14
F0.0
sg15
F850000.0
sg16
F5898997.0
sg17
F0.0
sg18
F7697777.0
sg19
F540751.0
sg20
F1552453.0
sg21
F357091.0
sg22
F1798780.0
sg23
F4346544.0
sg24
F232.0
ssS'KITCHEN LOUISE'
p67
(dp68
g3
F8305.0
sg4
F0.0
sg5
F5774.0
sg6
I00
sg7
F0.0
sg8
F251.0
sg9
F0.0
sg10
F3669.0
sg11
F0.0
sg12
F1728.0
sg13
F93925.0
sg14
F0.0
sg15
F3100000.0
sg16
F547143.0
sg17
F194.0
sg18
F4018284.0
sg19
F0.0
sg20
F466101.0
sg21
F271442.0
sg22
F3471141.0
sg23
F81042.0
sg24
F4114.0
ssS'CHAN RONNIE'
p69
(dp70
g3
F0.0
sg4
F0.0
sg5
F0.0
sg6
I00
sg7
F-98784.0
sg8
F0.0
sg9
F-32460.0
sg10
F0.0
sg11
F0.0
sg12
F0.0
sg13
F0.0
sg14
F98784.0
sg15
F0.0
sg16
F0.0
sg17
F0.0
sg18
F0.0
sg19
F0.0
sg20
F32460.0
sg21
F0.0
sg22
F0.0
sg23
F0.0
sg24
F0.0
ssS'BELFER ROBERT'
p71
(dp72
g3
F0.0
sg4
F-102500.0
sg5
F0.0
sg6
I00
sg7
F0.0
sg8
F0.0
sg9
F44093.0
sg10
F0.0
sg11
F0.0
sg12
F0.0
sg13
F0.0
sg14
F3285.0
sg15
F0.0
sg16
F-44093.0
sg17
F0.0
sg18
F58407.0
sg19
F0.0
sg20
F0.0
sg21
F0.0
sg22
F102500.0
sg23
F3285.0
sg24
F0.0
ssS'SHANKMAN JEFFREY A'
p73
(dp74
g3
F3221.0
sg4
F0.0
sg5
F178979.0
sg6
I00
sg7
F0.0
sg8
F94.0
sg9
F0.0
sg10
F1730.0
sg11
F0.0
sg12
F2681.0
sg13
F1191.0
sg14
F0.0
sg15
F2000000.0
sg16
F2072035.0
sg17
F83.0
sg18
F5110737.0
sg19
F554422.0
sg20
F630137.0
sg21
F304110.0
sg22
F3038702.0
sg23
F1441898.0
sg24
F1907.0
ssS'WODRASKA JOHN'
p75
(dp76
g3
F0.0
sg4
F0.0
sg5
F0.0
sg6
I00
sg7
F0.0
sg8
F0.0
sg9
F0.0
sg10
F0.0
sg11
F0.0
sg12
F0.0
sg13
F189583.0
sg14
F0.0
sg15
F0.0
sg16
F0.0
sg17
F0.0
sg18
F0.0
sg19
F0.0
sg20
F0.0
sg21
F0.0
sg22
F189583.0
sg23
F0.0
sg24
F0.0
ssS'BERGSIEKER RICHARD P'
p77
(dp78
g3
F383.0
sg4
F0.0
sg5
F59175.0
sg6
I00
sg7
F-485813.0
sg8
F4.0
sg9
F0.0
sg10
F233.0
sg11
F0.0
sg12
F59.0
sg13
F427316.0
sg14
F0.0
sg15
F250000.0
sg16
F659249.0
sg17
F0.0
sg18
F1278099.0
sg19
F180250.0
sg20
F659249.0
sg21
F187922.0
sg22
F618850.0
sg23
F0.0
sg24
F237.0
ssS'URQUHART JOHN A'
p79
(dp80
g3
F0.0
sg4
F0.0
sg5
F228656.0
sg6
I00
sg7
F-36666.0
sg8
F0.0
sg9
F0.0
sg10
F0.0
sg11
F0.0
sg12
F0.0
sg13
F0.0
sg14
F36666.0
sg15
F0.0
sg16
F0.0
sg17
F0.0
sg18
F0.0
sg19
F0.0
sg20
F0.0
sg21
F0.0
sg22
F228656.0
sg23
F0.0
sg24
F0.0
ssS'BIBI PHILIPPE A'
p81
(dp82
g3
F1607.0
sg4
F0.0
sg5
F38559.0
sg6
I00
sg7
F0.0
sg8
F23.0
sg9
F0.0
sg10
F1336.0
sg11
F0.0
sg12
F40.0
sg13
F425688.0
sg14
F0.0
sg15
F1000000.0
sg16
F1843816.0
sg17
F8.0
sg18
F3891409.0
sg19
F369721.0
sg20
F378082.0
sg21
F213625.0
sg22
F2047593.0
sg23
F1465734.0
sg24
F1367.0
ssS'PIRO JIM'
p83
(dp84
g3
F58.0
sg4
F0.0
sg5
F0.0
sg6
I00
sg7
F0.0
sg8
F0.0
sg9
F0.0
sg10
F3.0
sg11
F0.0
sg12
F16.0
sg13
F0.0
sg14
F0.0
sg15
F0.0
sg16
F47304.0
sg17
F1.0
sg18
F0.0
sg19
F0.0
sg20
F47304.0
sg21
F0.0
sg22
F0.0
sg23
F0.0
sg24
F4.0
ssS'RIEKER PAULA H'
p85
(dp86
g3
F1328.0
sg4
F214678.0
sg5
F33271.0
sg6
I01
sg7
F-100000.0
sg8
F35.0
sg9
F0.0
sg10
F1258.0
sg11
F0.0
sg12
F82.0
sg13
F1950.0
sg14
F0.0
sg15
F700000.0
sg16
F1918887.0
sg17
F48.0
sg18
F3017987.0
sg19
F0.0
sg20
F283649.0
sg21
F249201.0
sg22
F1099100.0
sg23
F1635238.0
sg24
F1341.0
ssS'WHALEY DAVID A'
p87
(dp88
g3
F0.0
sg4
F0.0
sg5
F0.0
sg6
I00
sg7
F0.0
sg8
F0.0
sg9
F0.0
sg10
F0.0
sg11
F0.0
sg12
F0.0
sg13
F0.0
sg14
F0.0
sg15
F0.0
sg16
F98718.0
sg17
F0.0
sg18
F0.0
sg19
F0.0
sg20
F0.0
sg21
F0.0
sg22
F0.0
sg23
F98718.0
sg24
F0.0
ssS'BECK SALLY W'
p89
(dp90
g3
F7315.0
sg4
F0.0
sg5
F37172.0
sg6
I00
sg7
F0.0
sg8
F144.0
sg9
F0.0
sg10
F2639.0
sg11
F0.0
sg12
F4343.0
sg13
F566.0
sg14
F0.0
sg15
F700000.0
sg16
F126027.0
sg17
F386.0
sg18
F1095095.0
sg19
F0.0
sg20
F126027.0
sg21
F231330.0
sg22
F969068.0
sg23
F0.0
sg24
F3169.0
ssS'HAUG DAVID L'
p91
(dp92
g3
F573.0
sg4
F0.0
sg5
F475.0
sg6
I00
sg7
F0.0
sg8
F4.0
sg9
F0.0
sg10
F471.0
sg11
F0.0
sg12
F19.0
sg13
F0.0
sg14
F0.0
sg15
F0.0
sg16
F2217299.0
sg17
F7.0
sg18
F2217774.0
sg19
F0.0
sg20
F2217299.0
sg21
F0.0
sg22
F475.0
sg23
F0.0
sg24
F482.0
ssS'ECHOLS JOHN B'
p93
(dp94
g3
F0.0
sg4
F0.0
sg5
F21530.0
sg6
I00
sg7
F0.0
sg8
F0.0
sg9
F0.0
sg10
F0.0
sg11
F0.0
sg12
F0.0
sg13
F53775.0
sg14
F0.0
sg15
F200000.0
sg16
F1008941.0
sg17
F0.0
sg18
F3701265.0
sg19
F2234774.0
sg20
F407503.0
sg21
F182245.0
sg22
F2692324.0
sg23
F601438.0
sg24
F0.0
ssS'MENDELSOHN JOHN'
p95
(dp96
g3
F0.0
sg4
F0.0
sg5
F148.0
sg6
I00
sg7
F-103750.0
sg8
F0.0
sg9
F0.0
sg10
F0.0
sg11
F0.0
sg12
F0.0
sg13
F0.0
sg14
F103750.0
sg15
F0.0
sg16
F0.0
sg17
F0.0
sg18
F0.0
sg19
F0.0
sg20
F0.0
sg21
F0.0
sg22
F148.0
sg23
F0.0
sg24
F0.0
ssS'HICKERSON GARY J'
p97
(dp98
g3
F1320.0
sg4
F0.0
sg5
F98849.0
sg6
I00
sg7
F0.0
sg8
F40.0
sg9
F0.0
sg10
F900.0
sg11
F0.0
sg12
F27.0
sg13
F1936.0
sg14
F0.0
sg15
F1700000.0
sg16
F441096.0
sg17
F1.0
sg18
F2522892.0
sg19
F69223.0
sg20
F441096.0
sg21
F211788.0
sg22
F2081796.0
sg23
F0.0
sg24
F941.0
ssS'CLINE KENNETH W'
p99
(dp100
g3
F0.0
sg4
F0.0
sg5
F0.0
sg6
I00
sg7
F0.0
sg8
F0.0
sg9
F-472568.0
sg10
F0.0
sg11
F0.0
sg12
F0.0
sg13
F0.0
sg14
F0.0
sg15
F0.0
sg16
F189518.0
sg17
F0.0
sg18
F0.0
sg19
F0.0
sg20
F662086.0
sg21
F0.0
sg22
F0.0
sg23
F0.0
sg24
F0.0
ssS'LEWIS RICHARD'
p101
(dp102
g3
F952.0
sg4
F0.0
sg5
F0.0
sg6
I00
sg7
F0.0
sg8
F10.0
sg9
F0.0
sg10
F739.0
sg11
F0.0
sg12
F26.0
sg13
F0.0
sg14
F0.0
sg15
F0.0
sg16
F850477.0
sg17
F0.0
sg18
F0.0
sg19
F0.0
sg20
F0.0
sg21
F0.0
sg22
F0.0
sg23
F850477.0
sg24
F749.0
ssS'HAYES ROBERT E'
p103
(dp104
g3
F504.0
sg4
F7961.0
sg5
F0.0
sg6
I00
sg7
F0.0
sg8
F16.0
sg9
F0.0
sg10
F50.0
sg11
F0.0
sg12
F12.0
sg13
F0.0
sg14
F0.0
sg15
F0.0
sg16
F151418.0
sg17
F0.0
sg18
F159379.0
sg19
F0.0
sg20
F151418.0
sg21
F0.0
sg22
F7961.0
sg23
F0.0
sg24
F66.0
ssS'KOPPER MICHAEL J'
p105
(dp106
g3
F0.0
sg4
F0.0
sg5
F118134.0
sg6
I01
sg7
F0.0
sg8
F0.0
sg9
F0.0
sg10
F0.0
sg11
F0.0
sg12
F0.0
sg13
F907502.0
sg14
F0.0
sg15
F800000.0
sg16
F985032.0
sg17
F0.0
sg18
F3637644.0
sg19
F602671.0
sg20
F985032.0
sg21
F224305.0
sg22
F2652612.0
sg23
F0.0
sg24
F0.0
ssS'LEFF DANIEL P'
p107
(dp108
g3
F2822.0
sg4
F0.0
sg5
F0.0
sg6
I00
sg7
F0.0
sg8
F67.0
sg9
F0.0
sg10
F2672.0
sg11
F0.0
sg12
F63.0
sg13
F3083.0
sg14
F0.0
sg15
F1000000.0
sg16
F360528.0
sg17
F14.0
sg18
F3024756.0
sg19
F1387399.0
sg20
F360528.0
sg21
F273746.0
sg22
F2664228.0
sg23
F0.0
sg24
F2753.0
ssS'LAVORATO JOHN J'
p109
(dp110
g3
F7259.0
sg4
F0.0
sg5
F49537.0
sg6
I00
sg7
F0.0
sg8
F528.0
sg9
F0.0
sg10
F3962.0
sg11
F0.0
sg12
F2585.0
sg13
F1552.0
sg14
F0.0
sg15
F8000000.0
sg16
F5167144.0
sg17
F411.0
sg18
F15592901.0
sg19
F2035380.0
sg20
F1008149.0
sg21
F339288.0
sg22
F10425757.0
sg23
F4158995.0
sg24
F4901.0
ssS'BERBERIAN DAVID'
p111
(dp112
g3
F0.0
sg4
F0.0
sg5
F11892.0
sg6
I00
sg7
F0.0
sg8
F0.0
sg9
F0.0
sg10
F0.0
sg11
F0.0
sg12
F0.0
sg13
F0.0
sg14
F0.0
sg15
F0.0
sg16
F2493616.0
sg17
F0.0
sg18
F2722090.0
sg19
F0.0
sg20
F869220.0
sg21
F216582.0
sg22
F228474.0
sg23
F1624396.0
sg24
F0.0
ssS'DETMERING TIMOTHY J'
p113
(dp114
g3
F0.0
sg4
F875307.0
sg5
F52255.0
sg6
I00
sg7
F-775241.0
sg8
F0.0
sg9
F-315068.0
sg10
F0.0
sg11
F0.0
sg12
F0.0
sg13
F1105.0
sg14
F0.0
sg15
F425000.0
sg16
F2027865.0
sg17
F0.0
sg18
F3232448.0
sg19
F415657.0
sg20
F315068.0
sg21
F210500.0
sg22
F1204583.0
sg23
F2027865.0
sg24
F0.0
ssS'WAKEHAM JOHN'
p115
(dp116
g3
F0.0
sg4
F0.0
sg5
F103773.0
sg6
I00
sg7
F0.0
sg8
F0.0
sg9
F0.0
sg10
F0.0
sg11
F0.0
sg12
F0.0
sg13
F0.0
sg14
F109298.0
sg15
F0.0
sg16
F0.0
sg17
F0.0
sg18
F0.0
sg19
F0.0
sg20
F0.0
sg21
F0.0
sg22
F213071.0
sg23
F0.0
sg24
F0.0
ssS'POWERS WILLIAM'
p117
(dp118
g3
F653.0
sg4
F0.0
sg5
F0.0
sg6
I00
sg7
F-17500.0
sg8
F0.0
sg9
F0.0
sg10
F12.0
sg11
F0.0
sg12
F26.0
sg13
F0.0
sg14
F17500.0
sg15
F0.0
sg16
F0.0
sg17
F0.0
sg18
F0.0
sg19
F0.0
sg20
F0.0
sg21
F0.0
sg22
F0.0
sg23
F0.0
sg24
F12.0
ssS'GOLD JOSEPH'
p119
(dp120
g3
F0.0
sg4
F0.0
sg5
F0.0
sg6
I00
sg7
F0.0
sg8
F0.0
sg9
F0.0
sg10
F0.0
sg11
F0.0
sg12
F0.0
sg13
F819288.0
sg14
F0.0
sg15
F750000.0
sg16
F877611.0
sg17
F0.0
sg18
F3024584.0
sg19
F304805.0
sg20
F441096.0
sg21
F272880.0
sg22
F2146973.0
sg23
F436515.0
sg24
F0.0
ssS'BANNANTINE JAMES M'
p121
(dp122
g3
F566.0
sg4
F0.0
sg5
F56301.0
sg6
I00
sg7
F-5104.0
sg8
F39.0
sg9
F-560222.0
sg10
F465.0
sg11
F0.0
sg12
F29.0
sg13
F864523.0
sg14
F0.0
sg15
F0.0
sg16
F5243487.0
sg17
F0.0
sg18
F6159684.0
sg19
F0.0
sg20
F1757552.0
sg21
F477.0
sg22
F916197.0
sg23
F4046157.0
sg24
F504.0
ssS'DUNCAN JOHN H'
p123
(dp124
g3
F0.0
sg4
F0.0
sg5
F0.0
sg6
I00
sg7
F-25000.0
sg8
F0.0
sg9
F0.0
sg10
F0.0
sg11
F0.0
sg12
F0.0
sg13
F0.0
sg14
F102492.0
sg15
F0.0
sg16
F371750.0
sg17
F0.0
sg18
F449242.0
sg19
F0.0
sg20
F0.0
sg21
F0.0
sg22
F77492.0
sg23
F371750.0
sg24
F0.0
ssS'SHAPIRO RICHARD S'
p125
(dp126
g3
F15149.0
sg4
F0.0
sg5
F137767.0
sg6
I00
sg7
F0.0
sg8
F74.0
sg9
F0.0
sg10
F4527.0
sg11
F0.0
sg12
F1215.0
sg13
F705.0
sg14
F0.0
sg15
F650000.0
sg16
F987001.0
sg17
F65.0
sg18
F2044549.0
sg19
F0.0
sg20
F379164.0
sg21
F269076.0
sg22
F1057548.0
sg23
F607837.0
sg24
F4666.0
ssS'SHERRIFF JOHN R'
p127
(dp128
g3
F3187.0
sg4
F0.0
sg5
F0.0
sg6
I00
sg7
F0.0
sg8
F28.0
sg9
F0.0
sg10
F2103.0
sg11
F0.0
sg12
F92.0
sg13
F1852186.0
sg14
F0.0
sg15
F1500000.0
sg16
F3128982.0
sg17
F23.0
sg18
F7464370.0
sg19
F554422.0
sg20
F1293424.0
sg21
F428780.0
sg22
F4335388.0
sg23
F1835558.0
sg24
F2154.0
ssS'SHELBY REX'
p129
(dp130
g3
F225.0
sg4
F0.0
sg5
F22884.0
sg6
I01
sg7
F-4167.0
sg8
F13.0
sg9
F0.0
sg10
F91.0
sg11
F0.0
sg12
F39.0
sg13
F1573324.0
sg14
F0.0
sg15
F200000.0
sg16
F2493616.0
sg17
F14.0
sg18
F4497501.0
sg19
F0.0
sg20
F869220.0
sg21
F211844.0
sg22
F2003885.0
sg23
F1624396.0
sg24
F118.0
ssS'LEMAISTRE CHARLES'
p131
(dp132
g3
F0.0
sg4
F0.0
sg5
F0.0
sg6
I00
sg7
F-25000.0
sg8
F0.0
sg9
F0.0
sg10
F0.0
sg11
F0.0
sg12
F0.0
sg13
F0.0
sg14
F112492.0
sg15
F0.0
sg16
F412878.0
sg17
F0.0
sg18
F500370.0
sg19
F0.0
sg20
F0.0
sg21
F0.0
sg22
F87492.0
sg23
F412878.0
sg24
F0.0
ssS'DEFFNER JOSEPH M'
p133
(dp134
g3
F714.0
sg4
F0.0
sg5
F41626.0
sg6
I00
sg7
F0.0
sg8
F115.0
sg9
F0.0
sg10
F552.0
sg11
F0.0
sg12
F74.0
sg13
F25553.0
sg14
F0.0
sg15
F600000.0
sg16
F159211.0
sg17
F4.0
sg18
F1367860.0
sg19
F335349.0
sg20
F141833.0
sg21
F206121.0
sg22
F1208649.0
sg23
F17378.0
sg24
F671.0
ssS'KISHKILL JOSEPH G'
p135
(dp136
g3
F0.0
sg4
F0.0
sg5
F116335.0
sg6
I00
sg7
F-51042.0
sg8
F0.0
sg9
F0.0
sg10
F0.0
sg11
F0.0
sg12
F0.0
sg13
F465357.0
sg14
F0.0
sg15
F0.0
sg16
F1034346.0
sg17
F0.0
sg18
F1739242.0
sg19
F0.0
sg20
F1034346.0
sg21
F174246.0
sg22
F704896.0
sg23
F0.0
sg24
F0.0
ssS'WHALLEY LAWRENCE G'
p137
(dp138
g3
F6019.0
sg4
F0.0
sg5
F57838.0
sg6
I00
sg7
F0.0
sg8
F186.0
sg9
F0.0
sg10
F3920.0
sg11
F0.0
sg12
F556.0
sg13
F301026.0
sg14
F0.0
sg15
F3000000.0
sg16
F6079137.0
sg17
F24.0
sg18
F10756711.0
sg19
F808346.0
sg20
F2796177.0
sg21
F510364.0
sg22
F4677574.0
sg23
F3282960.0
sg24
F4130.0
ssS'MCCARTY DANNY J'
p139
(dp140
g3
F1433.0
sg4
F0.0
sg5
F0.0
sg6
I00
sg7
F0.0
sg8
F25.0
sg9
F0.0
sg10
F508.0
sg11
F0.0
sg12
F215.0
sg13
F0.0
sg14
F0.0
sg15
F0.0
sg16
F758931.0
sg17
F2.0
sg18
F0.0
sg19
F0.0
sg20
F94556.0
sg21
F0.0
sg22
F0.0
sg23
F664375.0
sg24
F535.0
ssS'MCCONNELL MICHAEL S'
p141
(dp142
g3
F3329.0
sg4
F0.0
sg5
F81364.0
sg6
I00
sg7
F0.0
sg8
F92.0
sg9
F0.0
sg10
F2189.0
sg11
F0.0
sg12
F2742.0
sg13
F540.0
sg14
F0.0
sg15
F1100000.0
sg16
F3101279.0
sg17
F194.0
sg18
F5202643.0
sg19
F554422.0
sg20
F1478269.0
sg21
F365038.0
sg22
F2101364.0
sg23
F1623010.0
sg24
F2475.0
ssS'DELAINEY DAVID W'
p143
(dp144
g3
F3093.0
sg4
F0.0
sg5
F86174.0
sg6
I01
sg7
F0.0
sg8
F66.0
sg9
F0.0
sg10
F2097.0
sg11
F0.0
sg12
F3069.0
sg13
F1661.0
sg14
F0.0
sg15
F3000000.0
sg16
F3614261.0
sg17
F609.0
sg18
F8362240.0
sg19
F1294981.0
sg20
F1323148.0
sg21
F365163.0
sg22
F4747979.0
sg23
F2291113.0
sg24
F2772.0
ssS'SULLIVAN-SHAKLOVITZ COLLEEN'
p145
(dp146
g3
F0.0
sg4
F181993.0
sg5
F0.0
sg6
I00
sg7
F0.0
sg8
F0.0
sg9
F0.0
sg10
F0.0
sg11
F0.0
sg12
F0.0
sg13
F162.0
sg14
F0.0
sg15
F100000.0
sg16
F1362375.0
sg17
F0.0
sg18
F2361731.0
sg19
F554422.0
sg20
F0.0
sg21
F162779.0
sg22
F999356.0
sg23
F1362375.0
sg24
F0.0
ssS'WROBEL BRUCE'
p147
(dp148
g3
F0.0
sg4
F0.0
sg5
F0.0
sg6
I00
sg7
F0.0
sg8
F0.0
sg9
F0.0
sg10
F0.0
sg11
F0.0
sg12
F0.0
sg13
F0.0
sg14
F0.0
sg15
F0.0
sg16
F139130.0
sg17
F0.0
sg18
F0.0
sg19
F0.0
sg20
F0.0
sg21
F0.0
sg22
F0.0
sg23
F139130.0
sg24
F0.0
ssS'LINDHOLM TOD A'
p149
(dp150
g3
F0.0
sg4
F204075.0
sg5
F57727.0
sg6
I00
sg7
F0.0
sg8
F0.0
sg9
F0.0
sg10
F0.0
sg11
F0.0
sg12
F0.0
sg13
F2630.0
sg14
F0.0
sg15
F200000.0
sg16
F3064208.0
sg17
F0.0
sg18
F3940097.0
sg19
F175000.0
sg20
F514847.0
sg21
F236457.0
sg22
F875889.0
sg23
F2549361.0
sg24
F0.0
ssS'MEYER JEROME J'
p151
(dp152
g3
F0.0
sg4
F0.0
sg5
F2151.0
sg6
I00
sg7
F-38346.0
sg8
F0.0
sg9
F0.0
sg10
F0.0
sg11
F0.0
sg12
F0.0
sg13
F0.0
sg14
F38346.0
sg15
F0.0
sg16
F0.0
sg17
F0.0
sg18
F0.0
sg19
F0.0
sg20
F0.0
sg21
F0.0
sg22
F2151.0
sg23
F0.0
sg24
F0.0
ssS'LAY KENNETH L'
p153
(dp154
g3
F4273.0
sg4
F202911.0
sg5
F99832.0
sg6
I01
sg7
F-300000.0
sg8
F123.0
sg9
F0.0
sg10
F2411.0
sg11
F81525000.0
sg12
F36.0
sg13
F10359729.0
sg14
F0.0
sg15
F7000000.0
sg16
F49110078.0
sg17
F16.0
sg18
F152669871.0
sg19
F3600000.0
sg20
F14761694.0
sg21
F1072321.0
sg22
F103559793.0
sg23
F34348384.0
sg24
F2550.0
ssS'BUTTS ROBERT H'
p155
(dp156
g3
F0.0
sg4
F0.0
sg5
F9410.0
sg6
I00
sg7
F-75000.0
sg8
F0.0
sg9
F0.0
sg10
F0.0
sg11
F0.0
sg12
F0.0
sg13
F150656.0
sg14
F0.0
sg15
F750000.0
sg16
F417619.0
sg17
F0.0
sg18
F1689201.0
sg19
F175000.0
sg20
F417619.0
sg21
F261516.0
sg22
F1271582.0
sg23
F0.0
sg24
F0.0
ssS'OLSON CINDY K'
p157
(dp158
g3
F1184.0
sg4
F77716.0
sg5
F63791.0
sg6
I00
sg7
F0.0
sg8
F20.0
sg9
F0.0
sg10
F856.0
sg11
F0.0
sg12
F52.0
sg13
F972.0
sg14
F0.0
sg15
F750000.0
sg16
F2606763.0
sg17
F15.0
sg18
F3928320.0
sg19
F100000.0
sg20
F969729.0
sg21
F329078.0
sg22
F1321557.0
sg23
F1637034.0
sg24
F891.0
ssS'MCDONALD REBECCA'
p159
(dp160
g3
F894.0
sg4
F0.0
sg5
F0.0
sg6
I00
sg7
F0.0
sg8
F54.0
sg9
F0.0
sg10
F720.0
sg11
F0.0
sg12
F13.0
sg13
F0.0
sg14
F0.0
sg15
F0.0
sg16
F1691366.0
sg17
F1.0
sg18
F0.0
sg19
F0.0
sg20
F934065.0
sg21
F0.0
sg22
F0.0
sg23
F757301.0
sg24
F775.0
ssS'CUMBERLAND MICHAEL S'
p161
(dp162
g3
F0.0
sg4
F0.0
sg5
F22344.0
sg6
I00
sg7
F0.0
sg8
F0.0
sg9
F0.0
sg10
F0.0
sg11
F0.0
sg12
F0.0
sg13
F713.0
sg14
F0.0
sg15
F325000.0
sg16
F207940.0
sg17
F0.0
sg18
F1015896.0
sg19
F275000.0
sg20
F207940.0
sg21
F184899.0
sg22
F807956.0
sg23
F0.0
sg24
F0.0
ssS'GAHN ROBERT S'
p163
(dp164
g3
F0.0
sg4
F73122.0
sg5
F50080.0
sg6
I00
sg7
F-1042.0
sg8
F0.0
sg9
F0.0
sg10
F0.0
sg11
F0.0
sg12
F0.0
sg13
F76547.0
sg14
F0.0
sg15
F509870.0
sg16
F318607.0
sg17
F0.0
sg18
F1219192.0
sg19
F0.0
sg20
F235370.0
sg21
F192008.0
sg22
F900585.0
sg23
F83237.0
sg24
F0.0
ssS'MCCLELLAN GEORGE'
p165
(dp166
g3
F1744.0
sg4
F0.0
sg5
F228763.0
sg6
I00
sg7
F-125000.0
sg8
F52.0
sg9
F0.0
sg10
F1469.0
sg11
F0.0
sg12
F49.0
sg13
F51587.0
sg14
F0.0
sg15
F900000.0
sg16
F947861.0
sg17
F0.0
sg18
F2266624.0
sg19
F0.0
sg20
F441096.0
sg21
F263413.0
sg22
F1318763.0
sg23
F506765.0
sg24
F1521.0
ssS'HERMANN ROBERT J'
p167
(dp168
g3
F0.0
sg4
F0.0
sg5
F48357.0
sg6
I00
sg7
F-280000.0
sg8
F0.0
sg9
F0.0
sg10
F0.0
sg11
F0.0
sg12
F0.0
sg13
F416441.0
sg14
F0.0
sg15
F700000.0
sg16
F668132.0
sg17
F0.0
sg18
F1965593.0
sg19
F150000.0
sg20
F480632.0
sg21
F262663.0
sg22
F1297461.0
sg23
F187500.0
sg24
F0.0
ssS'SCRIMSHAW MATTHEW'
p169
(dp170
g3
F0.0
sg4
F0.0
sg5
F0.0
sg6
I00
sg7
F0.0
sg8
F0.0
sg9
F0.0
sg10
F0.0
sg11
F0.0
sg12
F0.0
sg13
F0.0
sg14
F0.0
sg15
F0.0
sg16
F759557.0
sg17
F0.0
sg18
F0.0
sg19
F0.0
sg20
F0.0
sg21
F0.0
sg22
F0.0
sg23
F759557.0
sg24
F0.0
ssS'GATHMANN WILLIAM D'
p171
(dp172
g3
F0.0
sg4
F0.0
sg5
F0.0
sg6
I00
sg7
F0.0
sg8
F0.0
sg9
F-72419.0
sg10
F0.0
sg11
F0.0
sg12
F0.0
sg13
F0.0
sg14
F0.0
sg15
F0.0
sg16
F1945360.0
sg17
F0.0
sg18
F0.0
sg19
F0.0
sg20
F264013.0
sg21
F0.0
sg22
F0.0
sg23
F1753766.0
sg24
F0.0
ssS'HAEDICKE MARK E'
p173
(dp174
g3
F4009.0
sg4
F2157527.0
sg5
F76169.0
sg6
I00
sg7
F-934484.0
sg8
F180.0
sg9
F-329825.0
sg10
F1847.0
sg11
F0.0
sg12
F1941.0
sg13
F52382.0
sg14
F0.0
sg15
F1150000.0
sg16
F803094.0
sg17
F61.0
sg18
F4662159.0
sg19
F983346.0
sg20
F524169.0
sg21
F374125.0
sg22
F3859065.0
sg23
F608750.0
sg24
F2088.0
ssS'BOWEN JR RAYMOND M'
p175
(dp176
g3
F1858.0
sg4
F0.0
sg5
F65907.0
sg6
I01
sg7
F-833.0
sg8
F140.0
sg9
F0.0
sg10
F1593.0
sg11
F0.0
sg12
F27.0
sg13
F1621.0
sg14
F0.0
sg15
F1350000.0
sg16
F252055.0
sg17
F15.0
sg18
F2921644.0
sg19
F974293.0
sg20
F252055.0
sg21
F278601.0
sg22
F2669589.0
sg23
F0.0
sg24
F1748.0
ssS'GILLIS JOHN'
p177
(dp178
g3
F0.0
sg4
F0.0
sg5
F0.0
sg6
I00
sg7
F0.0
sg8
F0.0
sg9
F0.0
sg10
F0.0
sg11
F0.0
sg12
F0.0
sg13
F0.0
sg14
F0.0
sg15
F0.0
sg16
F85641.0
sg17
F0.0
sg18
F0.0
sg19
F0.0
sg20
F75838.0
sg21
F0.0
sg22
F0.0
sg23
F9803.0
sg24
F0.0
ssS'FITZGERALD JAY L'
p179
(dp180
g3
F936.0
sg4
F0.0
sg5
F23870.0
sg6
I00
sg7
F0.0
sg8
F1.0
sg9
F0.0
sg10
F723.0
sg11
F0.0
sg12
F16.0
sg13
F285414.0
sg14
F0.0
sg15
F350000.0
sg16
F1621236.0
sg17
F8.0
sg18
F3036093.0
sg19
F556416.0
sg20
F956775.0
sg21
F199157.0
sg22
F1414857.0
sg23
F664461.0
sg24
F732.0
ssS'MORAN MICHAEL P'
p181
(dp182
g3
F672.0
sg4
F0.0
sg5
F0.0
sg6
I00
sg7
F0.0
sg8
F0.0
sg9
F0.0
sg10
F127.0
sg11
F0.0
sg12
F19.0
sg13
F0.0
sg14
F0.0
sg15
F0.0
sg16
F221141.0
sg17
F0.0
sg18
F0.0
sg19
F0.0
sg20
F161602.0
sg21
F0.0
sg22
F0.0
sg23
F59539.0
sg24
F127.0
ssS'REDMOND BRIAN L'
p183
(dp184
g3
F1671.0
sg4
F0.0
sg5
F14689.0
sg6
I00
sg7
F0.0
sg8
F204.0
sg9
F0.0
sg10
F1063.0
sg11
F0.0
sg12
F221.0
sg13
F0.0
sg14
F0.0
sg15
F0.0
sg16
F7890324.0
sg17
F49.0
sg18
F8001853.0
sg19
F0.0
sg20
F381285.0
sg21
F96840.0
sg22
F111529.0
sg23
F7509039.0
sg24
F1316.0
ssS'BAZELIDES PHILIP J'
p185
(dp186
g3
F0.0
sg4
F684694.0
sg5
F0.0
sg6
I00
sg7
F0.0
sg8
F0.0
sg9
F0.0
sg10
F0.0
sg11
F0.0
sg12
F0.0
sg13
F874.0
sg14
F0.0
sg15
F0.0
sg16
F1599641.0
sg17
F0.0
sg18
F2459777.0
sg19
F93750.0
sg20
F0.0
sg21
F80818.0
sg22
F860136.0
sg23
F1599641.0
sg24
F0.0
ssS'BELDEN TIMOTHY N'
p187
(dp188
g3
F7991.0
sg4
F2144013.0
sg5
F17355.0
sg6
I01
sg7
F-2334434.0
sg8
F228.0
sg9
F0.0
sg10
F5521.0
sg11
F0.0
sg12
F484.0
sg13
F210698.0
sg14
F0.0
sg15
F5249999.0
sg16
F1110705.0
sg17
F108.0
sg18
F6612335.0
sg19
F0.0
sg20
F157569.0
sg21
F213999.0
sg22
F5501630.0
sg23
F953136.0
sg24
F5857.0
ssS'DURAN WILLIAM D'
p189
(dp190
g3
F904.0
sg4
F0.0
sg5
F25785.0
sg6
I00
sg7
F0.0
sg8
F106.0
sg9
F0.0
sg10
F599.0
sg11
F0.0
sg12
F12.0
sg13
F1568.0
sg14
F0.0
sg15
F750000.0
sg16
F1640910.0
sg17
F3.0
sg18
F3734173.0
sg19
F1105218.0
sg20
F189041.0
sg21
F210692.0
sg22
F2093263.0
sg23
F1451869.0
sg24
F708.0
ssS'THORN TERENCE H'
p191
(dp192
g3
F266.0
sg4
F16586.0
sg5
F46145.0
sg6
I00
sg7
F0.0
sg8
F0.0
sg9
F0.0
sg10
F73.0
sg11
F0.0
sg12
F41.0
sg13
F426629.0
sg14
F0.0
sg15
F0.0
sg16
F4817796.0
sg17
F0.0
sg18
F5729249.0
sg19
F200000.0
sg20
F365320.0
sg21
F222093.0
sg22
F911453.0
sg23
F4452476.0
sg24
F73.0
ssS'FASTOW ANDREW S'
p193
(dp194
g3
F0.0
sg4
F0.0
sg5
F55921.0
sg6
I01
sg7
F-1386055.0
sg8
F0.0
sg9
F0.0
sg10
F0.0
sg11
F0.0
sg12
F0.0
sg13
F277464.0
sg14
F0.0
sg15
F1300000.0
sg16
F1794412.0
sg17
F0.0
sg18
F4218495.0
sg19
F1736055.0
sg20
F1794412.0
sg21
F440698.0
sg22
F2424083.0
sg23
F0.0
sg24
F0.0
ssS'FOY JOE'
p195
(dp196
g3
F57.0
sg4
F181755.0
sg5
F0.0
sg6
I00
sg7
F0.0
sg8
F0.0
sg9
F0.0
sg10
F2.0
sg11
F0.0
sg12
F13.0
sg13
F0.0
sg14
F0.0
sg15
F0.0
sg16
F343434.0
sg17
F0.0
sg18
F525189.0
sg19
F0.0
sg20
F0.0
sg21
F0.0
sg22
F181755.0
sg23
F343434.0
sg24
F2.0
ssS'CALGER CHRISTOPHER F'
p197
(dp198
g3
F2598.0
sg4
F0.0
sg5
F35818.0
sg6
I01
sg7
F-262500.0
sg8
F199.0
sg9
F0.0
sg10
F2188.0
sg11
F0.0
sg12
F144.0
sg13
F486.0
sg14
F0.0
sg15
F1250000.0
sg16
F126027.0
sg17
F25.0
sg18
F1765324.0
sg19
F375304.0
sg20
F126027.0
sg21
F240189.0
sg22
F1639297.0
sg23
F0.0
sg24
F2412.0
ssS'RICE KENNETH D'
p199
(dp200
g3
F905.0
sg4
F0.0
sg5
F46950.0
sg6
I01
sg7
F-3504386.0
sg8
F42.0
sg9
F0.0
sg10
F864.0
sg11
F0.0
sg12
F18.0
sg13
F174839.0
sg14
F0.0
sg15
F1750000.0
sg16
F22542539.0
sg17
F4.0
sg18
F23047589.0
sg19
F1617011.0
sg20
F2748364.0
sg21
F420636.0
sg22
F505050.0
sg23
F19794175.0
sg24
F910.0
ssS'KAMINSKI WINCENTY J'
p201
(dp202
g3
F4607.0
sg4
F0.0
sg5
F83585.0
sg6
I00
sg7
F0.0
sg8
F41.0
sg9
F0.0
sg10
F583.0
sg11
F0.0
sg12
F14368.0
sg13
F4669.0
sg14
F0.0
sg15
F400000.0
sg16
F976037.0
sg17
F171.0
sg18
F2062858.0
sg19
F323466.0
sg20
F126027.0
sg21
F275101.0
sg22
F1086821.0
sg23
F850010.0
sg24
F795.0
ssS'COX DAVID'
p203
(dp204
g3
F102.0
sg4
F0.0
sg5
F27861.0
sg6
I00
sg7
F-41250.0
sg8
F0.0
sg9
F0.0
sg10
F71.0
sg11
F0.0
sg12
F33.0
sg13
F494.0
sg14
F0.0
sg15
F800000.0
sg16
F495633.0
sg17
F4.0
sg18
F1597026.0
sg19
F0.0
sg20
F378082.0
sg21
F314288.0
sg22
F1101393.0
sg23
F117551.0
sg24
F75.0
ssS'OVERDYKE JR JERE C'
p205
(dp206
g3
F0.0
sg4
F0.0
sg5
F18834.0
sg6
I00
sg7
F0.0
sg8
F0.0
sg9
F0.0
sg10
F0.0
sg11
F0.0
sg12
F0.0
sg13
F176.0
sg14
F0.0
sg15
F0.0
sg16
F7307594.0
sg17
F0.0
sg18
F7557381.0
sg19
F135836.0
sg20
F2041016.0
sg21
F94941.0
sg22
F249787.0
sg23
F5266578.0
sg24
F0.0
ssS'PEREIRA PAULO V. FERRAZ'
p207
(dp208
g3
F0.0
sg4
F0.0
sg5
F27942.0
sg6
I00
sg7
F-101250.0
sg8
F0.0
sg9
F0.0
sg10
F0.0
sg11
F0.0
sg12
F0.0
sg13
F0.0
sg14
F101250.0
sg15
F0.0
sg16
F0.0
sg17
F0.0
sg18
F0.0
sg19
F0.0
sg20
F0.0
sg21
F0.0
sg22
F27942.0
sg23
F0.0
sg24
F0.0
ssS'STABLER FRANK'
p209
(dp210
g3
F0.0
sg4
F0.0
sg5
F16514.0
sg6
I00
sg7
F0.0
sg8
F0.0
sg9
F0.0
sg10
F0.0
sg11
F0.0
sg12
F0.0
sg13
F356071.0
sg14
F0.0
sg15
F500000.0
sg16
F511734.0
sg17
F0.0
sg18
F1623821.0
sg19
F0.0
sg20
F511734.0
sg21
F239502.0
sg22
F1112087.0
sg23
F0.0
sg24
F0.0
ssS'SKILLING JEFFREY K'
p211
(dp212
g3
F3627.0
sg4
F0.0
sg5
F29336.0
sg6
I01
sg7
F0.0
sg8
F88.0
sg9
F0.0
sg10
F2042.0
sg11
F0.0
sg12
F108.0
sg13
F22122.0
sg14
F0.0
sg15
F5600000.0
sg16
F26093672.0
sg17
F30.0
sg18
F34776388.0
sg19
F1920000.0
sg20
F6843672.0
sg21
F1111258.0
sg22
F8682716.0
sg23
F19250000.0
sg24
F2160.0
ssS'BLAKE JR. NORMAN P'
p213
(dp214
g3
F0.0
sg4
F0.0
sg5
F1279.0
sg6
I00
sg7
F-113784.0
sg8
F0.0
sg9
F0.0
sg10
F0.0
sg11
F0.0
sg12
F0.0
sg13
F0.0
sg14
F113784.0
sg15
F0.0
sg16
F0.0
sg17
F0.0
sg18
F0.0
sg19
F0.0
sg20
F0.0
sg21
F0.0
sg22
F1279.0
sg23
F0.0
sg24
F0.0
ssS'SHERRICK JEFFREY B'
p215
(dp216
g3
F613.0
sg4
F0.0
sg5
F0.0
sg6
I00
sg7
F0.0
sg8
F39.0
sg9
F0.0
sg10
F583.0
sg11
F0.0
sg12
F25.0
sg13
F0.0
sg14
F0.0
sg15
F0.0
sg16
F1832468.0
sg17
F18.0
sg18
F0.0
sg19
F0.0
sg20
F405999.0
sg21
F0.0
sg22
F0.0
sg23
F1426469.0
sg24
F640.0
ssS'PRENTICE JAMES'
p217
(dp218
g3
F0.0
sg4
F564348.0
sg5
F0.0
sg6
I00
sg7
F0.0
sg8
F0.0
sg9
F0.0
sg10
F0.0
sg11
F0.0
sg12
F0.0
sg13
F0.0
sg14
F0.0
sg15
F0.0
sg16
F1095040.0
sg17
F0.0
sg18
F1659388.0
sg19
F0.0
sg20
F208809.0
sg21
F0.0
sg22
F564348.0
sg23
F886231.0
sg24
F0.0
ssS'GRAY RODNEY'
p219
(dp220
g3
F0.0
sg4
F93585.0
sg5
F0.0
sg6
I00
sg7
F0.0
sg8
F0.0
sg9
F0.0
sg10
F0.0
sg11
F0.0
sg12
F0.0
sg13
F680833.0
sg14
F0.0
sg15
F0.0
sg16
F0.0
sg17
F0.0
sg18
F0.0
sg19
F365625.0
sg20
F0.0
sg21
F6615.0
sg22
F1146658.0
sg23
F0.0
sg24
F0.0
ssS'PICKERING MARK R'
p221
(dp222
g3
F898.0
sg4
F0.0
sg5
F31653.0
sg6
I00
sg7
F0.0
sg8
F7.0
sg9
F0.0
sg10
F728.0
sg11
F400000.0
sg12
F67.0
sg13
F0.0
sg14
F0.0
sg15
F300000.0
sg16
F28798.0
sg17
F0.0
sg18
F1415488.0
sg19
F0.0
sg20
F0.0
sg21
F655037.0
sg22
F1386690.0
sg23
F28798.0
sg24
F735.0
ssS'NOLES JAMES L'
p223
(dp224
g3
F0.0
sg4
F774401.0
sg5
F0.0
sg6
I00
sg7
F0.0
sg8
F0.0
sg9
F-94556.0
sg10
F0.0
sg11
F0.0
sg12
F0.0
sg13
F0.0
sg14
F0.0
sg15
F0.0
sg16
F368705.0
sg17
F0.0
sg18
F1143106.0
sg19
F0.0
sg20
F463261.0
sg21
F0.0
sg22
F774401.0
sg23
F0.0
sg24
F0.0
ssS'KEAN STEVEN J'
p225
(dp226
g3
F12754.0
sg4
F0.0
sg5
F41953.0
sg6
I00
sg7
F0.0
sg8
F140.0
sg9
F0.0
sg10
F3639.0
sg11
F0.0
sg12
F6759.0
sg13
F1231.0
sg14
F0.0
sg15
F1000000.0
sg16
F6153642.0
sg17
F387.0
sg18
F7901164.0
sg19
F300000.0
sg20
F4131594.0
sg21
F404338.0
sg22
F1747522.0
sg23
F2022048.0
sg24
F4166.0
ssS'FOWLER PEGGY'
p227
(dp228
g3
F517.0
sg4
F0.0
sg5
F0.0
sg6
I00
sg7
F0.0
sg8
F0.0
sg9
F0.0
sg10
F10.0
sg11
F0.0
sg12
F36.0
sg13
F0.0
sg14
F0.0
sg15
F0.0
sg16
F1884748.0
sg17
F0.0
sg18
F0.0
sg19
F0.0
sg20
F560170.0
sg21
F0.0
sg22
F0.0
sg23
F1324578.0
sg24
F10.0
ssS'WASAFF GEORGE'
p229
(dp230
g3
F400.0
sg4
F831299.0
sg5
F0.0
sg6
I00
sg7
F-583325.0
sg8
F22.0
sg9
F0.0
sg10
F337.0
sg11
F0.0
sg12
F30.0
sg13
F1425.0
sg14
F0.0
sg15
F325000.0
sg16
F2056427.0
sg17
F7.0
sg18
F3090822.0
sg19
F200000.0
sg20
F388167.0
sg21
F259996.0
sg22
F1034395.0
sg23
F1668260.0
sg24
F366.0
ssS'WHITE JR THOMAS E'
p231
(dp232
g3
F0.0
sg4
F0.0
sg5
F81353.0
sg6
I00
sg7
F0.0
sg8
F0.0
sg9
F0.0
sg10
F0.0
sg11
F0.0
sg12
F0.0
sg13
F1085463.0
sg14
F0.0
sg15
F450000.0
sg16
F15144123.0
sg17
F0.0
sg18
F17078482.0
sg19
F0.0
sg20
F13847074.0
sg21
F317543.0
sg22
F1934359.0
sg23
F1297049.0
sg24
F0.0
ssS'CHRISTODOULOU DIOMEDES'
p233
(dp234
g3
F0.0
sg4
F0.0
sg5
F0.0
sg6
I00
sg7
F0.0
sg8
F0.0
sg9
F0.0
sg10
F0.0
sg11
F0.0
sg12
F0.0
sg13
F0.0
sg14
F0.0
sg15
F0.0
sg16
F6077885.0
sg17
F0.0
sg18
F0.0
sg19
F0.0
sg20
F950730.0
sg21
F0.0
sg22
F0.0
sg23
F5127155.0
sg24
F0.0
ssS'ALLEN PHILLIP K'
p235
(dp236
g3
F2902.0
sg4
F2869717.0
sg5
F13868.0
sg6
I00
sg7
F-3081055.0
sg8
F47.0
sg9
F-126027.0
sg10
F1407.0
sg11
F0.0
sg12
F2195.0
sg13
F152.0
sg14
F0.0
sg15
F4175000.0
sg16
F1729541.0
sg17
F65.0
sg18
F6213983.0
sg19
F304805.0
sg20
F126027.0
sg21
F201955.0
sg22
F4484442.0
sg23
F1729541.0
sg24
F1519.0
ssS'SHARP VICTORIA T'
p237
(dp238
g3
F3136.0
sg4
F187469.0
sg5
F116337.0
sg6
I00
sg7
F0.0
sg8
F24.0
sg9
F0.0
sg10
F2477.0
sg11
F0.0
sg12
F136.0
sg13
F2401.0
sg14
F0.0
sg15
F600000.0
sg16
F494136.0
sg17
F6.0
sg18
F2070647.0
sg19
F422158.0
sg20
F213063.0
sg21
F248146.0
sg22
F1576511.0
sg23
F281073.0
sg24
F2507.0
ssS'JAEDICKE ROBERT'
p239
(dp240
g3
F0.0
sg4
F0.0
sg5
F0.0
sg6
I00
sg7
F-25000.0
sg8
F0.0
sg9
F-44093.0
sg10
F0.0
sg11
F0.0
sg12
F0.0
sg13
F0.0
sg14
F108750.0
sg15
F0.0
sg16
F431750.0
sg17
F0.0
sg18
F515500.0
sg19
F0.0
sg20
F44093.0
sg21
F0.0
sg22
F83750.0
sg23
F431750.0
sg24
F0.0
ssS'WINOKUR JR. HERBERT S'
p241
(dp242
g3
F0.0
sg4
F0.0
sg5
F1413.0
sg6
I00
sg7
F-25000.0
sg8
F0.0
sg9
F0.0
sg10
F0.0
sg11
F0.0
sg12
F0.0
sg13
F0.0
sg14
F108579.0
sg15
F0.0
sg16
F0.0
sg17
F0.0
sg18
F0.0
sg19
F0.0
sg20
F0.0
sg21
F0.0
sg22
F84992.0
sg23
F0.0
sg24
F0.0
ssS'BROWN MICHAEL'
p243
(dp244
g3
F1486.0
sg4
F0.0
sg5
F49288.0
sg6
I00
sg7
F0.0
sg8
F13.0
sg9
F0.0
sg10
F761.0
sg11
F0.0
sg12
F41.0
sg13
F0.0
sg14
F0.0
sg15
F0.0
sg16
F0.0
sg17
F1.0
sg18
F0.0
sg19
F0.0
sg20
F0.0
sg21
F0.0
sg22
F49288.0
sg23
F0.0
sg24
F775.0
ssS'BADUM JAMES P'
p245
(dp246
g3
F0.0
sg4
F178980.0
sg5
F3486.0
sg6
I00
sg7
F0.0
sg8
F0.0
sg9
F0.0
sg10
F0.0
sg11
F0.0
sg12
F0.0
sg13
F0.0
sg14
F0.0
sg15
F0.0
sg16
F257817.0
sg17
F0.0
sg18
F440283.0
sg19
F0.0
sg20
F0.0
sg21
F0.0
sg22
F182466.0
sg23
F257817.0
sg24
F0.0
ssS'HUGHES JAMES A'
p247
(dp248
g3
F719.0
sg4
F0.0
sg5
F0.0
sg6
I00
sg7
F0.0
sg8
F35.0
sg9
F0.0
sg10
F589.0
sg11
F0.0
sg12
F34.0
sg13
F0.0
sg14
F0.0
sg15
F0.0
sg16
F1118394.0
sg17
F5.0
sg18
F0.0
sg19
F0.0
sg20
F363428.0
sg21
F0.0
sg22
F0.0
sg23
F754966.0
sg24
F629.0
ssS'REYNOLDS LAWRENCE'
p249
(dp250
g3
F0.0
sg4
F51365.0
sg5
F8409.0
sg6
I00
sg7
F-200000.0
sg8
F0.0
sg9
F-140264.0
sg10
F0.0
sg11
F0.0
sg12
F0.0
sg13
F202052.0
sg14
F0.0
sg15
F100000.0
sg16
F4221891.0
sg17
F0.0
sg18
F4616366.0
sg19
F156250.0
sg20
F201483.0
sg21
F76399.0
sg22
F394475.0
sg23
F4160672.0
sg24
F0.0
ssS'DIMICHELE RICHARD G'
p251
(dp252
g3
F0.0
sg4
F0.0
sg5
F35812.0
sg6
I00
sg7
F0.0
sg8
F0.0
sg9
F0.0
sg10
F0.0
sg11
F0.0
sg12
F0.0
sg13
F374689.0
sg14
F0.0
sg15
F1000000.0
sg16
F8317782.0
sg17
F0.0
sg18
F10685933.0
sg19
F694862.0
sg20
F126027.0
sg21
F262788.0
sg22
F2368151.0
sg23
F8191755.0
sg24
F0.0
ssS'BHATNAGAR SANJAY'
p253
(dp254
g3
F523.0
sg4
F0.0
sg5
F0.0
sg6
I00
sg7
F0.0
sg8
F0.0
sg9
F15456290.0
sg10
F463.0
sg11
F0.0
sg12
F29.0
sg13
F137864.0
sg14
F137864.0
sg15
F0.0
sg16
F0.0
sg17
F1.0
sg18
F0.0
sg19
F0.0
sg20
F-2604490.0
sg21
F0.0
sg22
F15456290.0
sg23
F2604490.0
sg24
F464.0
ssS'CARTER REBECCA C'
p255
(dp256
g3
F312.0
sg4
F0.0
sg5
F0.0
sg6
I00
sg7
F-159792.0
sg8
F29.0
sg9
F-307301.0
sg10
F196.0
sg11
F0.0
sg12
F15.0
sg13
F540.0
sg14
F0.0
sg15
F300000.0
sg16
F0.0
sg17
F7.0
sg18
F0.0
sg19
F75000.0
sg20
F307301.0
sg21
F261809.0
sg22
F477557.0
sg23
F0.0
sg24
F232.0
ssS'BUCHANAN HAROLD G'
p257
(dp258
g3
F1088.0
sg4
F0.0
sg5
F600.0
sg6
I00
sg7
F0.0
sg8
F0.0
sg9
F0.0
sg10
F23.0
sg11
F0.0
sg12
F125.0
sg13
F1215.0
sg14
F0.0
sg15
F500000.0
sg16
F1014505.0
sg17
F0.0
sg18
F2069142.0
sg19
F304805.0
sg20
F189041.0
sg21
F248017.0
sg22
F1054637.0
sg23
F825464.0
sg24
F23.0
ssS'YEAP SOON'
p259
(dp260
g3
F0.0
sg4
F0.0
sg5
F55097.0
sg6
I00
sg7
F0.0
sg8
F0.0
sg9
F0.0
sg10
F0.0
sg11
F0.0
sg12
F0.0
sg13
F0.0
sg14
F0.0
sg15
F0.0
sg16
F192758.0
sg17
F0.0
sg18
F247855.0
sg19
F0.0
sg20
F0.0
sg21
F0.0
sg22
F55097.0
sg23
F192758.0
sg24
F0.0
ssS'MURRAY JULIA H'
p261
(dp262
g3
F2192.0
sg4
F0.0
sg5
F57580.0
sg6
I00
sg7
F0.0
sg8
F11.0
sg9
F0.0
sg10
F395.0
sg11
F0.0
sg12
F45.0
sg13
F330.0
sg14
F0.0
sg15
F400000.0
sg16
F597461.0
sg17
F2.0
sg18
F1409655.0
sg19
F125000.0
sg20
F196983.0
sg21
F229284.0
sg22
F812194.0
sg23
F400478.0
sg24
F408.0
ssS'GARLAND C KEVIN'
p263
(dp264
g3
F209.0
sg4
F0.0
sg5
F48405.0
sg6
I00
sg7
F0.0
sg8
F10.0
sg9
F0.0
sg10
F178.0
sg11
F0.0
sg12
F44.0
sg13
F60814.0
sg14
F0.0
sg15
F850000.0
sg16
F896153.0
sg17
F27.0
sg18
F2462622.0
sg19
F375304.0
sg20
F259907.0
sg21
F231946.0
sg22
F1566469.0
sg23
F636246.0
sg24
F215.0
ssS'DODSON KEITH'
p265
(dp266
g3
F176.0
sg4
F0.0
sg5
F28164.0
sg6
I00
sg7
F0.0
sg8
F10.0
sg9
F0.0
sg10
F114.0
sg11
F0.0
sg12
F14.0
sg13
F774.0
sg14
F0.0
sg15
F70000.0
sg16
F0.0
sg17
F3.0
sg18
F0.0
sg19
F0.0
sg20
F0.0
sg21
F221003.0
sg22
F319941.0
sg23
F0.0
sg24
F127.0
ssS'YEAGER F SCOTT'
p267
(dp268
g3
F0.0
sg4
F0.0
sg5
F53947.0
sg6
I01
sg7
F0.0
sg8
F0.0
sg9
F0.0
sg10
F0.0
sg11
F0.0
sg12
F0.0
sg13
F147950.0
sg14
F0.0
sg15
F0.0
sg16
F11884758.0
sg17
F0.0
sg18
F12245058.0
sg19
F0.0
sg20
F3576206.0
sg21
F158403.0
sg22
F360300.0
sg23
F8308552.0
sg24
F0.0
ssS'HIRKO JOSEPH'
p269
(dp270
g3
F0.0
sg4
F10259.0
sg5
F77978.0
sg6
I01
sg7
F0.0
sg8
F0.0
sg9
F0.0
sg10
F0.0
sg11
F0.0
sg12
F0.0
sg13
F2856.0
sg14
F0.0
sg15
F0.0
sg16
F30766064.0
sg17
F0.0
sg18
F30857157.0
sg19
F0.0
sg20
F0.0
sg21
F0.0
sg22
F91093.0
sg23
F30766064.0
sg24
F0.0
ssS'DIETRICH JANET R'
p271
(dp272
g3
F2572.0
sg4
F0.0
sg5
F3475.0
sg6
I00
sg7
F0.0
sg8
F305.0
sg9
F0.0
sg10
F1902.0
sg11
F0.0
sg12
F63.0
sg13
F473.0
sg14
F0.0
sg15
F600000.0
sg16
F1865087.0
sg17
F14.0
sg18
F3275551.0
sg19
F556416.0
sg20
F315068.0
sg21
F250100.0
sg22
F1410464.0
sg23
F1550019.0
sg24
F2221.0
ssS'DERRICK JR. JAMES V'
p273
(dp274
g3
F2181.0
sg4
F0.0
sg5
F51124.0
sg6
I00
sg7
F-1284000.0
sg8
F64.0
sg9
F-1787380.0
sg10
F1401.0
sg11
F0.0
sg12
F909.0
sg13
F7482.0
sg14
F0.0
sg15
F800000.0
sg16
F8831913.0
sg17
F20.0
sg18
F9382894.0
sg19
F484000.0
sg20
F1787380.0
sg21
F492375.0
sg22
F550981.0
sg23
F8831913.0
sg24
F1485.0
ssS'FREVERT MARK A'
p275
(dp276
g3
F3275.0
sg4
F6426990.0
sg5
F86987.0
sg6
I00
sg7
F-3367011.0
sg8
F242.0
sg9
F0.0
sg10
F2979.0
sg11
F2000000.0
sg12
F21.0
sg13
F7427621.0
sg14
F0.0
sg15
F2000000.0
sg16
F14622185.0
sg17
F6.0
sg18
F31874715.0
sg19
F1617011.0
sg20
F4188667.0
sg21
F1060932.0
sg22
F17252530.0
sg23
F10433518.0
sg24
F3227.0
ssS'PAI LOU L'
p277
(dp278
g3
F0.0
sg4
F0.0
sg5
F32047.0
sg6
I00
sg7
F0.0
sg8
F0.0
sg9
F0.0
sg10
F0.0
sg11
F0.0
sg12
F0.0
sg13
F1829457.0
sg14
F0.0
sg15
F1000000.0
sg16
F23817930.0
sg17
F0.0
sg18
F26941313.0
sg19
F0.0
sg20
F8453763.0
sg21
F261879.0
sg22
F3123383.0
sg23
F15364167.0
sg24
F0.0
ssS'BAY FRANKLIN R'
p279
(dp280
g3
F0.0
sg4
F260455.0
sg5
F129142.0
sg6
I00
sg7
F-201641.0
sg8
F0.0
sg9
F-82782.0
sg10
F0.0
sg11
F0.0
sg12
F0.0
sg13
F69.0
sg14
F0.0
sg15
F400000.0
sg16
F63014.0
sg17
F0.0
sg18
F890710.0
sg19
F0.0
sg20
F145796.0
sg21
F239671.0
sg22
F827696.0
sg23
F0.0
sg24
F0.0
ssS'HAYSLETT RODERICK J'
p281
(dp282
g3
F2649.0
sg4
F0.0
sg5
F0.0
sg6
I00
sg7
F0.0
sg8
F35.0
sg9
F0.0
sg10
F571.0
sg11
F0.0
sg12
F1061.0
sg13
F0.0
sg14
F0.0
sg15
F0.0
sg16
F346663.0
sg17
F38.0
sg18
F0.0
sg19
F0.0
sg20
F346663.0
sg21
F0.0
sg22
F0.0
sg23
F0.0
sg24
F644.0
ssS'FUGH JOHN L'
p283
(dp284
g3
F0.0
sg4
F50591.0
sg5
F0.0
sg6
I00
sg7
F0.0
sg8
F0.0
sg9
F0.0
sg10
F0.0
sg11
F0.0
sg12
F0.0
sg13
F0.0
sg14
F0.0
sg15
F0.0
sg16
F176378.0
sg17
F0.0
sg18
F226969.0
sg19
F0.0
sg20
F0.0
sg21
F0.0
sg22
F50591.0
sg23
F176378.0
sg24
F0.0
ssS'FALLON JAMES B'
p285
(dp286
g3
F1755.0
sg4
F0.0
sg5
F95924.0
sg6
I00
sg7
F0.0
sg8
F42.0
sg9
F0.0
sg10
F1604.0
sg11
F0.0
sg12
F75.0
sg13
F401481.0
sg14
F0.0
sg15
F2500000.0
sg16
F2332399.0
sg17
F37.0
sg18
F6008739.0
sg19
F374347.0
sg20
F1392142.0
sg21
F304588.0
sg22
F3676340.0
sg23
F940257.0
sg24
F1683.0
ssS'KOENIG MARK E'
p287
(dp288
g3
F2374.0
sg4
F0.0
sg5
F127017.0
sg6
I01
sg7
F0.0
sg8
F53.0
sg9
F0.0
sg10
F2271.0
sg11
F0.0
sg12
F61.0
sg13
F150458.0
sg14
F0.0
sg15
F700000.0
sg16
F1920055.0
sg17
F15.0
sg18
F3507476.0
sg19
F300000.0
sg20
F1248318.0
sg21
F309946.0
sg22
F1587421.0
sg23
F671737.0
sg24
F2339.0
ssS'SAVAGE FRANK'
p289
(dp290
g3
F0.0
sg4
F0.0
sg5
F0.0
sg6
I00
sg7
F-121284.0
sg8
F0.0
sg9
F0.0
sg10
F0.0
sg11
F0.0
sg12
F0.0
sg13
F0.0
sg14
F125034.0
sg15
F0.0
sg16
F0.0
sg17
F0.0
sg18
F0.0
sg19
F0.0
sg20
F0.0
sg21
F0.0
sg22
F3750.0
sg23
F0.0
sg24
F0.0
ssS'IZZO LAWRENCE L'
p291
(dp292
g3
F496.0
sg4
F0.0
sg5
F28093.0
sg6
I00
sg7
F0.0
sg8
F28.0
sg9
F0.0
sg10
F437.0
sg11
F0.0
sg12
F19.0
sg13
F1553729.0
sg14
F0.0
sg15
F0.0
sg16
F5819980.0
sg17
F5.0
sg18
F7799576.0
sg19
F312500.0
sg20
F3654808.0
sg21
F85274.0
sg22
F1979596.0
sg23
F2165172.0
sg24
F470.0
ssS'TILNEY ELIZABETH A'
p293
(dp294
g3
F460.0
sg4
F0.0
sg5
F0.0
sg6
I00
sg7
F-575000.0
sg8
F10.0
sg9
F0.0
sg10
F379.0
sg11
F0.0
sg12
F19.0
sg13
F152055.0
sg14
F0.0
sg15
F300000.0
sg16
F1168042.0
sg17
F11.0
sg18
F1567435.0
sg19
F275000.0
sg20
F576792.0
sg21
F247338.0
sg22
F399393.0
sg23
F591250.0
sg24
F400.0
ssS'MARTIN AMANDA K'
p295
(dp296
g3
F1522.0
sg4
F85430.0
sg5
F8211.0
sg6
I00
sg7
F0.0
sg8
F8.0
sg9
F0.0
sg10
F477.0
sg11
F0.0
sg12
F230.0
sg13
F2818454.0
sg14
F0.0
sg15
F0.0
sg16
F2070306.0
sg17
F0.0
sg18
F10477322.0
sg19
F5145434.0
sg20
F0.0
sg21
F349487.0
sg22
F8407016.0
sg23
F2070306.0
sg24
F485.0
ssS'BUY RICHARD B'
p297
(dp298
g3
F3523.0
sg4
F649584.0
sg5
F0.0
sg6
I00
sg7
F-694862.0
sg8
F156.0
sg9
F0.0
sg10
F2333.0
sg11
F0.0
sg12
F1053.0
sg13
F400572.0
sg14
F0.0
sg15
F900000.0
sg16
F3444470.0
sg17
F71.0
sg18
F5800172.0
sg19
F769862.0
sg20
F901657.0
sg21
F330546.0
sg22
F2355702.0
sg23
F2542813.0
sg24
F2560.0
ssS'GRAMM WENDY L'
p299
(dp300
g3
F0.0
sg4
F0.0
sg5
F0.0
sg6
I00
sg7
F0.0
sg8
F0.0
sg9
F0.0
sg10
F0.0
sg11
F0.0
sg12
F0.0
sg13
F0.0
sg14
F119292.0
sg15
F0.0
sg16
F0.0
sg17
F0.0
sg18
F0.0
sg19
F0.0
sg20
F0.0
sg21
F0.0
sg22
F119292.0
sg23
F0.0
sg24
F0.0
ssS'CAUSEY RICHARD A'
p301
(dp302
g3
F1892.0
sg4
F0.0
sg5
F30674.0
sg6
I01
sg7
F-235000.0
sg8
F58.0
sg9
F0.0
sg10
F1585.0
sg11
F0.0
sg12
F49.0
sg13
F307895.0
sg14
F0.0
sg15
F1000000.0
sg16
F2502063.0
sg17
F12.0
sg18
F4370821.0
sg19
F350000.0
sg20
F2502063.0
sg21
F415189.0
sg22
F1868758.0
sg23
F0.0
sg24
F1655.0
ssS'TAYLOR MITCHELL S'
p303
(dp304
g3
F533.0
sg4
F227449.0
sg5
F0.0
sg6
I00
sg7
F0.0
sg8
F0.0
sg9
F0.0
sg10
F300.0
sg11
F0.0
sg12
F29.0
sg13
F0.0
sg14
F0.0
sg15
F600000.0
sg16
F3745048.0
sg17
F0.0
sg18
F4837711.0
sg19
F0.0
sg20
F563798.0
sg21
F265214.0
sg22
F1092663.0
sg23
F3181250.0
sg24
F300.0
ssS'DONAHUE JR JEFFREY M'
p305
(dp306
g3
F865.0
sg4
F0.0
sg5
F96268.0
sg6
I00
sg7
F-300000.0
sg8
F188.0
sg9
F0.0
sg10
F772.0
sg11
F0.0
sg12
F22.0
sg13
F891.0
sg14
F0.0
sg15
F800000.0
sg16
F1080988.0
sg17
F11.0
sg18
F1956748.0
sg19
F0.0
sg20
F315068.0
sg21
F278601.0
sg22
F875760.0
sg23
F765920.0
sg24
F971.0
ssS'GLISAN JR BEN F'
p307
(dp308
g3
F873.0
sg4
F0.0
sg5
F125978.0
sg6
I01
sg7
F0.0
sg8
F52.0
sg9
F0.0
sg10
F874.0
sg11
F0.0
sg12
F16.0
sg13
F200308.0
sg14
F0.0
sg15
F600000.0
sg16
F778546.0
sg17
F6.0
sg18
F2050830.0
sg19
F71023.0
sg20
F393818.0
sg21
F274975.0
sg22
F1272284.0
sg23
F384728.0
sg24
F932.0
ss.